gplink-2.2.34 (Jun  1 2022)
Listing File Generated: 2024-3-9  11:29:06
 
 
Address  Value    Disassembly              Source
-------  -----    -----------              ------
                                           ;--------------------------------------------------------
                                           ; external declarations
                                           ;--------------------------------------------------------
                                           	extern	_time_50us_tick_function
                                           	extern	_time_deal
                                           	extern	_Led_mode_deal
                                           	extern	_send_three_byte
                                           	extern	_send_one_byte
                                           	extern	_send_000
                                           	extern	_send_all_byte
                                           	extern	_RTC_mode_6_qicailiushui_012345_543210_time_deal
                                           	extern	_RGB_color_deal
                                           	extern	_led_color_deal
                                           	extern	_INDFbits
                                           	extern	_T0CNTbits
                                           	extern	_PCLbits
                                           	extern	_STATUSbits
                                           	extern	_FSRbits
                                           	extern	_P1bits
                                           	extern	_MCRbits
                                           	extern	_P1KBCRbits
                                           	extern	_PCLATHbits
                                           	extern	_PDCONbits
                                           	extern	_ODCONbits
                                           	extern	_PUCONbits
                                           	extern	_INTEbits
                                           	extern	_INTFbits
                                           	extern	_T0CRbits
                                           	extern	_DDR1bits
                                           	extern	_TMRCRbits
                                           	extern	_T1CRbits
                                           	extern	_T1CNTbits
                                           	extern	_T1LOADbits
                                           	extern	_T1DATAbits
                                           	extern	_time_50us_tick
                                           	extern	_time_1ms_tick
                                           	extern	_time_10ms_tick
                                           	extern	_Led_time_1ms_tick
                                           	extern	_IR_LED_ON_F
                                           	extern	_short_mode_init_F
                                           	extern	_led_level_temp
                                           	extern	_led_num
                                           	extern	_send_count
                                           	extern	_Time_Count
                                           	extern	_flag1
                                           	extern	_LED_R_PWM_expect
                                           	extern	_LED_G_PWM_expect
                                           	extern	_LED_B_PWM_expect
                                           	extern	_led_level_1_16
                                           	extern	_RTC_mode
                                           	extern	_RTC_led_level
                                           	extern	_Color_mode
                                           	extern	_led_mode
                                           	extern	_led_level
                                           	extern	_led_speed
                                           	extern	_temp_byte_value
                                           	extern	_LED_duty
                                           	extern	_HC_R_LED_Color_LEVEL_TABLE
                                           	extern	_HC_G_LED_Color_LEVEL_TABLE
                                           	extern	_HC_B_LED_Color_LEVEL_TABLE
                                           	extern	_INDF
                                           	extern	_T0CNT
                                           	extern	_PCL
                                           	extern	_STATUS
                                           	extern	_FSR
                                           	extern	_P1
                                           	extern	_MCR
                                           	extern	_P1KBCR
                                           	extern	_PCLATH
                                           	extern	_PDCON
                                           	extern	_ODCON
                                           	extern	_PUCON
                                           	extern	_INTE
                                           	extern	_INTF
                                           	extern	_T0CR
                                           	extern	_DDR1
                                           	extern	_TMRCR
                                           	extern	_T1CR
                                           	extern	_T1CNT
                                           	extern	_T1LOAD
                                           	extern	_T1DATA
                                           ;--------------------------------------------------------
                                           ; global declarations
                                           ;--------------------------------------------------------
                                           	global	_main
                                           	global	_int_isr
                                           	global	_abuf
                                           	global	_statusbuf
                                           
                                           	global STK06
                                           	global STK05
                                           	global STK04
                                           	global STK03
                                           	global STK02
                                           	global STK01
                                           	global STK00
                                           
                                           sharebank udata_ovr 0x0010
                                           STK06	res 1
                                           STK05	res 1
                                           STK04	res 1
                                           STK03	res 1
                                           STK02	res 1
                                           STK01	res 1
                                           STK00	res 1
                                           
                                           ;--------------------------------------------------------
                                           ; global definitions
                                           ;--------------------------------------------------------
                                           UD_MC30P6280_0	udata
                                           _abuf	res	1
                                           
                                           UD_MC30P6280_1	udata
                                           _statusbuf	res	1
                                           
                                           ;--------------------------------------------------------
                                           ; absolute symbol definitions
                                           ;--------------------------------------------------------
                                           ;--------------------------------------------------------
                                           ; compiler-defined variables
                                           ;--------------------------------------------------------
                                           UDL_MC30P6280_0	udata
                                           r0x1005	res	1
                                           ;--------------------------------------------------------
                                           ; initialized data
                                           ;--------------------------------------------------------
                                           
                                           ;@Allocation info for local variables in function 'main'
                                           ;@main time_50us_tick_function   Allocated to registers ;size:2
                                           ;@main time_deal                 Allocated to registers ;size:2
                                           ;@main Led_mode_deal             Allocated to registers ;size:2
                                           ;@main send_three_byte           Allocated to registers ;size:2
                                           ;@main send_one_byte             Allocated to registers ;size:2
                                           ;@main send_000                  Allocated to registers ;size:2
                                           ;@main send_all_byte             Allocated to registers ;size:2
                                           ;@main RTC_mode_6_qicailiushui_012345_543210_time_deal Allocated to registers ;size:2
                                           ;@main RGB_color_deal            Allocated to registers ;size:2
                                           ;@main led_color_deal            Allocated to registers ;size:2
                                           ;@main main                      Allocated to registers ;size:2
                                           ;@main INDFbits                  Allocated to registers ;size:1
                                           ;@main T0CNTbits                 Allocated to registers ;size:1
                                           ;@main PCLbits                   Allocated to registers ;size:1
                                           ;@main STATUSbits                Allocated to registers ;size:1
                                           ;@main FSRbits                   Allocated to registers ;size:1
                                           ;@main P1bits                    Allocated to registers ;size:1
                                           ;@main MCRbits                   Allocated to registers ;size:1
                                           ;@main P1KBCRbits                Allocated to registers ;size:1
                                           ;@main PCLATHbits                Allocated to registers ;size:1
                                           ;@main PDCONbits                 Allocated to registers ;size:1
                                           ;@main ODCONbits                 Allocated to registers ;size:1
                                           ;@main PUCONbits                 Allocated to registers ;size:1
                                           ;@main INTEbits                  Allocated to registers ;size:1
                                           ;@main INTFbits                  Allocated to registers ;size:1
                                           ;@main T0CRbits                  Allocated to registers ;size:1
                                           ;@main DDR1bits                  Allocated to registers ;size:1
                                           ;@main TMRCRbits                 Allocated to registers ;size:1
                                           ;@main T1CRbits                  Allocated to registers ;size:1
                                           ;@main T1CNTbits                 Allocated to registers ;size:1
                                           ;@main T1LOADbits                Allocated to registers ;size:1
                                           ;@main T1DATAbits                Allocated to registers ;size:1
                                           ;@main time_50us_tick            Allocated to registers ;size:1
                                           ;@main time_1ms_tick             Allocated to registers ;size:1
                                           ;@main time_10ms_tick            Allocated to registers ;size:1
                                           ;@main Led_time_1ms_tick         Allocated to registers ;size:1
                                           ;@main IR_LED_ON_F               Allocated to registers ;size:1
                                           ;@main short_mode_init_F         Allocated to registers ;size:1
                                           ;@main led_level_temp            Allocated to registers ;size:1
                                           ;@main led_num                   Allocated to registers ;size:1
                                           ;@main send_count                Allocated to registers ;size:1
                                           ;@main Time_Count                Allocated to registers ;size:1
                                           ;@main flag1                     Allocated to registers ;size:1
                                           ;@main LED_R_PWM_expect          Allocated to registers ;size:1
                                           ;@main LED_G_PWM_expect          Allocated to registers ;size:1
                                           ;@main LED_B_PWM_expect          Allocated to registers ;size:1
                                           ;@main led_level_1_16            Allocated to registers ;size:1
                                           ;@main RTC_mode                  Allocated to registers ;size:1
                                           ;@main RTC_led_level             Allocated to registers ;size:1
                                           ;@main Color_mode                Allocated to registers ;size:1
                                           ;@main led_mode                  Allocated to registers ;size:1
                                           ;@main led_level                 Allocated to registers ;size:1
                                           ;@main led_speed                 Allocated to registers ;size:1
                                           ;@main temp_byte_value           Allocated to registers ;size:1
                                           ;@main LED_duty                  Allocated to registers ;size:1
                                           ;@main abuf                      Allocated to registers ;size:1
                                           ;@main statusbuf                 Allocated to registers ;size:1
                                           ;@main INDF                      Allocated to registers ;size:1
                                           ;@main T0CNT                     Allocated to registers ;size:1
                                           ;@main PCL                       Allocated to registers ;size:1
                                           ;@main STATUS                    Allocated to registers ;size:1
                                           ;@main FSR                       Allocated to registers ;size:1
                                           ;@main P1                        Allocated to registers ;size:1
                                           ;@main MCR                       Allocated to registers ;size:1
                                           ;@main P1KBCR                    Allocated to registers ;size:1
                                           ;@main PCLATH                    Allocated to registers ;size:1
                                           ;@main PDCON                     Allocated to registers ;size:1
                                           ;@main ODCON                     Allocated to registers ;size:1
                                           ;@main PUCON                     Allocated to registers ;size:1
                                           ;@main INTE                      Allocated to registers ;size:1
                                           ;@main INTF                      Allocated to registers ;size:1
                                           ;@main T0CR                      Allocated to registers ;size:1
                                           ;@main DDR1                      Allocated to registers ;size:1
                                           ;@main TMRCR                     Allocated to registers ;size:1
                                           ;@main T1CR                      Allocated to registers ;size:1
                                           ;@main T1CNT                     Allocated to registers ;size:1
                                           ;@main T1LOAD                    Allocated to registers ;size:1
                                           ;@main T1DATA                    Allocated to registers ;size:1
                                           ;@end Allocation info for local variables in function 'main';
                                           ;@Allocation info for local variables in function 'int_isr'
                                           ;@end Allocation info for local variables in function 'int_isr';
                                           
                                           ;--------------------------------------------------------
                                           ; overlayable items in internal ram 
                                           ;--------------------------------------------------------
                                           ;	udata_ovr
                                           ;--------------------------------------------------------
                                           ; reset vector 
                                           ;--------------------------------------------------------
                                           STARTUP	code 0x0000
000000   29d9     goto    0x1d9            	goto	_main
                                           ;--------------------------------------------------------
                                           ; interrupt and initialization code
                                           ;--------------------------------------------------------
                                           c_interrupt	code	0x8
                                           __sdcc_interrupt
                                           ;***
                                           ;  pBlock Stats: dbName = I
                                           ;***
                                           ;entry:  _int_isr	;Function start
                                           ; 0 exit points
                                           ;1 compiler assigned register :
                                           ;   r0x1005
                                           ;; Starting pCode block
                                           _int_isr	;Function start
                                           ; 0 exit points
                                           ;	.line	67; "MC30P6280.c"	__endasm;
000008   159e     movra   0x1e             	movra	_abuf
000009   1103     swapar  0x3              	swapar	_STATUS
00000a   159f     movra   0x1f             	movra	_statusbuf
                                           ;	.line	69; "MC30P6280.c"	if ((T0IF) && (T0IE))
00000b   300f     jbset   0xf, 0           	JBSET	_INTFbits,0
00000c   281d     goto    0x1d             	GOTO	_00112_DS_
00000d   300e     jbset   0xe, 0           	JBSET	_INTEbits,0
00000e   281d     goto    0x1d             	GOTO	_00112_DS_
                                           ;	.line	71; "MC30P6280.c"	T0IF = 0;
00000f   3c0f     bclr    0xf, 0           	BCLR	_INTFbits,0
                                           ;	.line	72; "MC30P6280.c"	T0CNT = 256 - 46;
000010   0bd2     movai   0xd2             	MOVAI	0xd2
000011   1581     movra   0x1              	MOVRA	_T0CNT
                                           ;	.line	73; "MC30P6280.c"	time_50us_tick++;
000012   19b9     incr    0x39             	INCR	_time_50us_tick
                                           ;	.line	74; "MC30P6280.c"	test = ~test;
000013   1da0     clrr    0x20             	CLRR	r0x1005
000014   3486     jbclr   0x6, 0x1         	JBCLR	_P1bits,1
000015   19a0     incr    0x20             	INCR	r0x1005
000016   1c20     comar   0x20             	COMAR	r0x1005
000017   15a0     movra   0x20             	MOVRA	r0x1005
000018   1320     rrar    0x20             	RRAR	r0x1005
000019   3003     jbset   0x3, 0           	JBSET	STATUS,0
00001a   3c86     bclr    0x6, 0x1         	BCLR	_P1bits,1
00001b   3403     jbclr   0x3, 0           	JBCLR	STATUS,0
00001c   3886     bset    0x6, 0x1         	BSET	_P1bits,1
                                           _00112_DS_
                                           ;	.line	87; "MC30P6280.c"	__endasm;
00001d   111f     swapar  0x1f             	swapar	_statusbuf
00001e   1583     movra   0x3              	movra	_STATUS
00001f   119e     swapr   0x1e             	swapr	_abuf
000020   111e     swapar  0x1e             	swapar	_abuf
                                           END_OF_INTERRUPT
                                           ;	.line	88; "MC30P6280.c"	}
000021   000d     retie                    	RETIE	
                                           
                                           ;--------------------------------------------------------
                                           ; code
                                           ;--------------------------------------------------------
                                           code_MC30P6280	code
                                           ;***
                                           ;  pBlock Stats: dbName = M
                                           ;***
                                           ;entry:  _main	;Function start
                                           ; 2 exit points
                                           ;has an exit
                                           ;functions called:
                                           ;   _time_50us_tick_function
                                           ;   _time_50us_tick_function
                                           ;; Starting pCode block
                                           _main	;Function start
                                           ; 2 exit points
                                           ;	.line	19; "MC30P6280.c"	GIE = 0;
0001d9   3f8e     bclr    0xe, 0x7         	BCLR	_INTEbits,7
                                           ;	.line	31; "MC30P6280.c"	__endasm;
0001da   0b3f     movai   0x3f             	movai	0x3F
0001db   1584     movra   0x4              	movra	FSR
0001dc   0b2f     movai   0x2f             	movai	47
0001dd   15bf     movra   0x3f             	movra	0x3F
0001de   1b84     decr    0x4              	decr	FSR
0001df   1d80     clrr    0                	clrr	INDF
0001e0   1abf     djzr    0x3f             	djzr	0x3F
0001e1   29de     goto    0x1de            	goto	$ -3;
0001e2   1dbf     clrr    0x3f             	clrr	0x3F
                                           	
                                           ;	.line	33; "MC30P6280.c"	P1 = 0x00; //1:input 0:output
0001e3   1d86     clrr    0x6              	CLRR	_P1
                                           ;	.line	34; "MC30P6280.c"	DDR1 = 0x00;   	//1:input 0:output
0001e4   1dc6     clrr    0x46             	CLRR	_DDR1
                                           ;	.line	35; "MC30P6280.c"	PUCON = 0xff; //0:Effective 1:invalid
0001e5   0bff     movai   0xff             	MOVAI	0xff
0001e6   158d     movra   0xd              	MOVRA	_PUCON
                                           ;	.line	36; "MC30P6280.c"	PDCON = 0xff; //0:Effective 1:invalid
0001e7   0bff     movai   0xff             	MOVAI	0xff
0001e8   158b     movra   0xb              	MOVRA	_PDCON
                                           ;	.line	37; "MC30P6280.c"	ODCON = 0x00; //0:推挽输出  1:开漏输出
0001e9   1d8c     clrr    0xc              	CLRR	_ODCON
                                           ;	.line	39; "MC30P6280.c"	T0CR = 0x01; //时钟为CPU时钟    定时器64分频  1ms
0001ea   0b01     movai   0x1              	MOVAI	0x01
0001eb   15c1     movra   0x41             	MOVRA	_T0CR
                                           ;	.line	40; "MC30P6280.c"	T0CNT = 256 - 46;
0001ec   0bd2     movai   0xd2             	MOVAI	0xd2
0001ed   1581     movra   0x1              	MOVRA	_T0CNT
                                           ;	.line	41; "MC30P6280.c"	T0IE = 1;
0001ee   380e     bset    0xe, 0           	BSET	_INTEbits,0
                                           ;	.line	43; "MC30P6280.c"	led_mode = Color_mode_Max + 6;
0001ef   0b37     movai   0x37             	MOVAI	0x37
0001f0   15b1     movra   0x31             	MOVRA	_led_mode
                                           ;	.line	44; "MC30P6280.c"	IR_LED_ON_F = 1;
0001f1   0b01     movai   0x1              	MOVAI	0x01
0001f2   15a8     movra   0x28             	MOVRA	_IR_LED_ON_F
                                           ;	.line	45; "MC30P6280.c"	led_level = LED_LEVEL_Max;
0001f3   0bf0     movai   0xf0             	MOVAI	0xf0
0001f4   15b4     movra   0x34             	MOVRA	_led_level
                                           ;	.line	46; "MC30P6280.c"	short_mode_init_F = 1;
0001f5   0b01     movai   0x1              	MOVAI	0x01
0001f6   15a9     movra   0x29             	MOVRA	_short_mode_init_F
                                           ;	.line	48; "MC30P6280.c"	GIE = 1;
0001f7   3b8e     bset    0xe, 0x7         	BSET	_INTEbits,7
                                           _00106_DS_
                                           ;	.line	51; "MC30P6280.c"	time_50us_tick_function();
0001f8   21b2     call    0x1b2            	CALL	_time_50us_tick_function
0001f9   29f8     goto    0x1f8            	GOTO	_00106_DS_
                                           ;	.line	53; "MC30P6280.c"	}
0001fa   000c     return                   	RETURN	
                                           ; exit point of _main
                                           
                                           
                                           ;	code size estimation:
                                           ;	   44+    0 =    44 instructions (   88 byte)
                                           
                                           	end
                                           ;--------------------------------------------------------
                                           ; File Created by SN-SDCC : SinoMCU ANSI-C Compiler
                                           ; Version 2.0.0 (Dec 11 2019) (MINGW32)
                                           ; This file was generated Sat Mar 09 11:29:05 2024
                                           ;--------------------------------------------------------
                                           ; MC30 port for the RISC core
                                           ;--------------------------------------------------------
                                           ;	.file	"display_qicailiushui6.c"
                                           	list	p=1K6280
                                           	radix dec
                                           	include "1K6280.inc"
                                           		LIST
                                           ;mc30p6280.inc    Standard Header File, Version 1.00 by Sinomcu
                                           		NOLIST
                                           ;--------------------------------------------------------
                                           ; external declarations
                                           ;--------------------------------------------------------
                                           	extern	_time_50us_tick_function
                                           	extern	_time_deal
                                           	extern	_Led_mode_deal
                                           	extern	_send_three_byte
                                           	extern	_send_one_byte
                                           	extern	_send_000
                                           	extern	_send_all_byte
                                           	extern	_RGB_color_deal
                                           	extern	_led_color_deal
                                           	extern	_INDFbits
                                           	extern	_T0CNTbits
                                           	extern	_PCLbits
                                           	extern	_STATUSbits
                                           	extern	_FSRbits
                                           	extern	_P1bits
                                           	extern	_MCRbits
                                           	extern	_P1KBCRbits
                                           	extern	_PCLATHbits
                                           	extern	_PDCONbits
                                           	extern	_ODCONbits
                                           	extern	_PUCONbits
                                           	extern	_INTEbits
                                           	extern	_INTFbits
                                           	extern	_T0CRbits
                                           	extern	_DDR1bits
                                           	extern	_TMRCRbits
                                           	extern	_T1CRbits
                                           	extern	_T1CNTbits
                                           	extern	_T1LOADbits
                                           	extern	_T1DATAbits
                                           	extern	_time_50us_tick
                                           	extern	_time_1ms_tick
                                           	extern	_time_10ms_tick
                                           	extern	_Led_time_1ms_tick
                                           	extern	_IR_LED_ON_F
                                           	extern	_short_mode_init_F
                                           	extern	_led_level_temp
                                           	extern	_led_num
                                           	extern	_send_count
                                           	extern	_Time_Count
                                           	extern	_LED_R_PWM_expect
                                           	extern	_LED_G_PWM_expect
                                           	extern	_LED_B_PWM_expect
                                           	extern	_led_level_1_16
                                           	extern	_RTC_mode
                                           	extern	_RTC_led_level
                                           	extern	_Color_mode
                                           	extern	_led_mode
                                           	extern	_led_level
                                           	extern	_led_speed
                                           	extern	_temp_byte_value
                                           	extern	_LED_duty
                                           	extern	_HC_R_LED_Color_LEVEL_TABLE
                                           	extern	_HC_G_LED_Color_LEVEL_TABLE
                                           	extern	_HC_B_LED_Color_LEVEL_TABLE
                                           	extern	_INDF
                                           	extern	_T0CNT
                                           	extern	_PCL
                                           	extern	_STATUS
                                           	extern	_FSR
                                           	extern	_P1
                                           	extern	_MCR
                                           	extern	_P1KBCR
                                           	extern	_PCLATH
                                           	extern	_PDCON
                                           	extern	_ODCON
                                           	extern	_PUCON
                                           	extern	_INTE
                                           	extern	_INTF
                                           	extern	_T0CR
                                           	extern	_DDR1
                                           	extern	_TMRCR
                                           	extern	_T1CR
                                           	extern	_T1CNT
                                           	extern	_T1LOAD
                                           	extern	_T1DATA
                                           
                                           	extern STK06
                                           	extern STK05
                                           	extern STK04
                                           	extern STK03
                                           	extern STK02
                                           	extern STK01
                                           	extern STK00
                                           ;--------------------------------------------------------
                                           ; global declarations
                                           ;--------------------------------------------------------
                                           	global	_RTC_mode_6_qicailiushui_012345_543210_time_deal
                                           	global	_flag1
                                           	global	_mode_6_step
                                           
                                           ;--------------------------------------------------------
                                           ; global definitions
                                           ;--------------------------------------------------------
                                           UD_display_qicailiushui6_0	udata
                                           _flag1	res	1
                                           
                                           UD_display_qicailiushui6_1	udata
                                           _mode_6_step	res	1
                                           
                                           ;--------------------------------------------------------
                                           ; absolute symbol definitions
                                           ;--------------------------------------------------------
                                           ;--------------------------------------------------------
                                           ; compiler-defined variables
                                           ;--------------------------------------------------------
                                           UDL_display_qicailiushui6_0	udata
                                           r0x1007	res	1
                                           ;--------------------------------------------------------
                                           ; initialized data
                                           ;--------------------------------------------------------
                                           
                                           ;@Allocation info for local variables in function 'RTC_mode_6_qicailiushui_012345_543210_time_deal'
                                           ;@RTC_mode_6_qicailiushui_012345_543210_time_deal time_50us_tick_function   Allocated to registers ;size:2
                                           ;@RTC_mode_6_qicailiushui_012345_543210_time_deal time_deal                 Allocated to registers ;size:2
                                           ;@RTC_mode_6_qicailiushui_012345_543210_time_deal Led_mode_deal             Allocated to registers ;size:2
                                           ;@RTC_mode_6_qicailiushui_012345_543210_time_deal send_three_byte           Allocated to registers ;size:2
                                           ;@RTC_mode_6_qicailiushui_012345_543210_time_deal send_one_byte             Allocated to registers ;size:2
                                           ;@RTC_mode_6_qicailiushui_012345_543210_time_deal send_000                  Allocated to registers ;size:2
                                           ;@RTC_mode_6_qicailiushui_012345_543210_time_deal send_all_byte             Allocated to registers ;size:2
                                           ;@RTC_mode_6_qicailiushui_012345_543210_time_deal RGB_color_deal            Allocated to registers ;size:2
                                           ;@RTC_mode_6_qicailiushui_012345_543210_time_deal led_color_deal            Allocated to registers ;size:2
                                           ;@RTC_mode_6_qicailiushui_012345_543210_time_deal INDFbits                  Allocated to registers ;size:1
                                           ;@RTC_mode_6_qicailiushui_012345_543210_time_deal T0CNTbits                 Allocated to registers ;size:1
                                           ;@RTC_mode_6_qicailiushui_012345_543210_time_deal PCLbits                   Allocated to registers ;size:1
                                           ;@RTC_mode_6_qicailiushui_012345_543210_time_deal STATUSbits                Allocated to registers ;size:1
                                           ;@RTC_mode_6_qicailiushui_012345_543210_time_deal FSRbits                   Allocated to registers ;size:1
                                           ;@RTC_mode_6_qicailiushui_012345_543210_time_deal P1bits                    Allocated to registers ;size:1
                                           ;@RTC_mode_6_qicailiushui_012345_543210_time_deal MCRbits                   Allocated to registers ;size:1
                                           ;@RTC_mode_6_qicailiushui_012345_543210_time_deal P1KBCRbits                Allocated to registers ;size:1
                                           ;@RTC_mode_6_qicailiushui_012345_543210_time_deal PCLATHbits                Allocated to registers ;size:1
                                           ;@RTC_mode_6_qicailiushui_012345_543210_time_deal PDCONbits                 Allocated to registers ;size:1
                                           ;@RTC_mode_6_qicailiushui_012345_543210_time_deal ODCONbits                 Allocated to registers ;size:1
                                           ;@RTC_mode_6_qicailiushui_012345_543210_time_deal PUCONbits                 Allocated to registers ;size:1
                                           ;@RTC_mode_6_qicailiushui_012345_543210_time_deal INTEbits                  Allocated to registers ;size:1
                                           ;@RTC_mode_6_qicailiushui_012345_543210_time_deal INTFbits                  Allocated to registers ;size:1
                                           ;@RTC_mode_6_qicailiushui_012345_543210_time_deal T0CRbits                  Allocated to registers ;size:1
                                           ;@RTC_mode_6_qicailiushui_012345_543210_time_deal DDR1bits                  Allocated to registers ;size:1
                                           ;@RTC_mode_6_qicailiushui_012345_543210_time_deal TMRCRbits                 Allocated to registers ;size:1
                                           ;@RTC_mode_6_qicailiushui_012345_543210_time_deal T1CRbits                  Allocated to registers ;size:1
                                           ;@RTC_mode_6_qicailiushui_012345_543210_time_deal T1CNTbits                 Allocated to registers ;size:1
                                           ;@RTC_mode_6_qicailiushui_012345_543210_time_deal T1LOADbits                Allocated to registers ;size:1
                                           ;@RTC_mode_6_qicailiushui_012345_543210_time_deal T1DATAbits                Allocated to registers ;size:1
                                           ;@RTC_mode_6_qicailiushui_012345_543210_time_deal time_50us_tick            Allocated to registers ;size:1
                                           ;@RTC_mode_6_qicailiushui_012345_543210_time_deal time_1ms_tick             Allocated to registers ;size:1
                                           ;@RTC_mode_6_qicailiushui_012345_543210_time_deal time_10ms_tick            Allocated to registers ;size:1
                                           ;@RTC_mode_6_qicailiushui_012345_543210_time_deal Led_time_1ms_tick         Allocated to registers ;size:1
                                           ;@RTC_mode_6_qicailiushui_012345_543210_time_deal IR_LED_ON_F               Allocated to registers ;size:1
                                           ;@RTC_mode_6_qicailiushui_012345_543210_time_deal short_mode_init_F         Allocated to registers ;size:1
                                           ;@RTC_mode_6_qicailiushui_012345_543210_time_deal led_level_temp            Allocated to registers ;size:1
                                           ;@RTC_mode_6_qicailiushui_012345_543210_time_deal led_num                   Allocated to registers ;size:1
                                           ;@RTC_mode_6_qicailiushui_012345_543210_time_deal send_count                Allocated to registers ;size:1
                                           ;@RTC_mode_6_qicailiushui_012345_543210_time_deal Time_Count                Allocated to registers ;size:1
                                           ;@RTC_mode_6_qicailiushui_012345_543210_time_deal LED_R_PWM_expect          Allocated to registers ;size:1
                                           ;@RTC_mode_6_qicailiushui_012345_543210_time_deal LED_G_PWM_expect          Allocated to registers ;size:1
                                           ;@RTC_mode_6_qicailiushui_012345_543210_time_deal LED_B_PWM_expect          Allocated to registers ;size:1
                                           ;@RTC_mode_6_qicailiushui_012345_543210_time_deal led_level_1_16            Allocated to registers ;size:1
                                           ;@RTC_mode_6_qicailiushui_012345_543210_time_deal RTC_mode                  Allocated to registers ;size:1
                                           ;@RTC_mode_6_qicailiushui_012345_543210_time_deal RTC_led_level             Allocated to registers ;size:1
                                           ;@RTC_mode_6_qicailiushui_012345_543210_time_deal Color_mode                Allocated to registers ;size:1
                                           ;@RTC_mode_6_qicailiushui_012345_543210_time_deal led_mode                  Allocated to registers ;size:1
                                           ;@RTC_mode_6_qicailiushui_012345_543210_time_deal led_level                 Allocated to registers ;size:1
                                           ;@RTC_mode_6_qicailiushui_012345_543210_time_deal led_speed                 Allocated to registers ;size:1
                                           ;@RTC_mode_6_qicailiushui_012345_543210_time_deal temp_byte_value           Allocated to registers ;size:1
                                           ;@RTC_mode_6_qicailiushui_012345_543210_time_deal LED_duty                  Allocated to registers ;size:1
                                           ;@RTC_mode_6_qicailiushui_012345_543210_time_deal flag1                     Allocated to registers ;size:1
                                           ;@RTC_mode_6_qicailiushui_012345_543210_time_deal mode_6_step               Allocated to registers ;size:1
                                           ;@RTC_mode_6_qicailiushui_012345_543210_time_deal INDF                      Allocated to registers ;size:1
                                           ;@RTC_mode_6_qicailiushui_012345_543210_time_deal T0CNT                     Allocated to registers ;size:1
                                           ;@RTC_mode_6_qicailiushui_012345_543210_time_deal PCL                       Allocated to registers ;size:1
                                           ;@RTC_mode_6_qicailiushui_012345_543210_time_deal STATUS                    Allocated to registers ;size:1
                                           ;@RTC_mode_6_qicailiushui_012345_543210_time_deal FSR                       Allocated to registers ;size:1
                                           ;@RTC_mode_6_qicailiushui_012345_543210_time_deal P1                        Allocated to registers ;size:1
                                           ;@RTC_mode_6_qicailiushui_012345_543210_time_deal MCR                       Allocated to registers ;size:1
                                           ;@RTC_mode_6_qicailiushui_012345_543210_time_deal P1KBCR                    Allocated to registers ;size:1
                                           ;@RTC_mode_6_qicailiushui_012345_543210_time_deal PCLATH                    Allocated to registers ;size:1
                                           ;@RTC_mode_6_qicailiushui_012345_543210_time_deal PDCON                     Allocated to registers ;size:1
                                           ;@RTC_mode_6_qicailiushui_012345_543210_time_deal ODCON                     Allocated to registers ;size:1
                                           ;@RTC_mode_6_qicailiushui_012345_543210_time_deal PUCON                     Allocated to registers ;size:1
                                           ;@RTC_mode_6_qicailiushui_012345_543210_time_deal INTE                      Allocated to registers ;size:1
                                           ;@RTC_mode_6_qicailiushui_012345_543210_time_deal INTF                      Allocated to registers ;size:1
                                           ;@RTC_mode_6_qicailiushui_012345_543210_time_deal T0CR                      Allocated to registers ;size:1
                                           ;@RTC_mode_6_qicailiushui_012345_543210_time_deal DDR1                      Allocated to registers ;size:1
                                           ;@RTC_mode_6_qicailiushui_012345_543210_time_deal TMRCR                     Allocated to registers ;size:1
                                           ;@RTC_mode_6_qicailiushui_012345_543210_time_deal T1CR                      Allocated to registers ;size:1
                                           ;@RTC_mode_6_qicailiushui_012345_543210_time_deal T1CNT                     Allocated to registers ;size:1
                                           ;@RTC_mode_6_qicailiushui_012345_543210_time_deal T1LOAD                    Allocated to registers ;size:1
                                           ;@RTC_mode_6_qicailiushui_012345_543210_time_deal T1DATA                    Allocated to registers ;size:1
                                           ;@end Allocation info for local variables in function 'RTC_mode_6_qicailiushui_012345_543210_time_deal';
                                           
                                           ;--------------------------------------------------------
                                           ; overlayable items in internal ram 
                                           ;--------------------------------------------------------
                                           ;	udata_ovr
                                           ;--------------------------------------------------------
                                           ; code
                                           ;--------------------------------------------------------
                                           code_display_qicailiushui6	code
                                           ;***
                                           ;  pBlock Stats: dbName = C
                                           ;***
                                           ;entry:  _RTC_mode_6_qicailiushui_012345_543210_time_deal	;Function start
                                           ; 2 exit points
                                           ;has an exit
                                           ;functions called:
                                           ;   _led_color_deal
                                           ;   _RGB_color_deal
                                           ;   _send_all_byte
                                           ;   _send_000
                                           ;   _send_all_byte
                                           ;   _led_color_deal
                                           ;   _RGB_color_deal
                                           ;   _send_all_byte
                                           ;   _send_000
                                           ;   _send_all_byte
                                           ;1 compiler assigned register :
                                           ;   r0x1007
                                           ;; Starting pCode block
                                           _RTC_mode_6_qicailiushui_012345_543210_time_deal	;Function start
                                           ; 2 exit points
                                           ;	.line	11; "display_qicailiushui6.c"	if( Led_time_1ms_tick >= led_speed  )  // ON_F && IR_MIC_F == 2 22 
0000ea   1636     movar   0x36             	MOVAR	_led_speed
0000eb   123d     rsubar  0x3d             	RSUBAR	_Led_time_1ms_tick
0000ec   3003     jbset   0x3, 0           	JBSET	STATUS,0
0000ed   291b     goto    0x11b            	GOTO	_00118_DS_
                                           ;;genSkipc:3291: created from rifx:00285F1C
                                           ;	.line	13; "display_qicailiushui6.c"	Led_time_1ms_tick= 0;
0000ee   1dbd     clrr    0x3d             	CLRR	_Led_time_1ms_tick
                                           ;	.line	19; "display_qicailiushui6.c"	if( flag1.back_F == 0 ) 
0000ef   3421     jbclr   0x21, 0          	JBCLR	_flag1,0
0000f0   28fe     goto    0xfe             	GOTO	_00114_DS_
                                           ;	.line	21; "display_qicailiushui6.c"	if( mode_6_step != 3 )
0000f1   1622     movar   0x22             	MOVAR	_mode_6_step
0000f2   0803     xorai   0x3              	XORAI	0x03
0000f3   3103     jbset   0x3, 0x2         	JBSET	STATUS,2
0000f4   28f6     goto    0xf6             	GOTO	_00145_DS_
0000f5   28f7     goto    0xf7             	GOTO	_00106_DS_
                                           _00145_DS_
                                           ;	.line	23; "display_qicailiushui6.c"	Time_Count++;
0000f6   19a6     incr    0x26             	INCR	_Time_Count
                                           ;;unsigned compare: left < lit(0xF=15), size=1
                                           _00106_DS_
                                           ;	.line	25; "display_qicailiushui6.c"	if( Time_Count >=  send_data_table_num_1_2 )
0000f7   0b0f     movai   0xf              	MOVAI	0x0f
0000f8   1226     rsubar  0x26             	RSUBAR	_Time_Count
0000f9   3003     jbset   0x3, 0           	JBSET	STATUS,0
0000fa   290b     goto    0x10b            	GOTO	_00115_DS_
                                           ;;genSkipc:3291: created from rifx:00285F1C
                                           ;	.line	27; "display_qicailiushui6.c"	flag1.back_F = 1;
0000fb   3821     bset    0x21, 0          	BSET	_flag1,0
                                           ;	.line	28; "display_qicailiushui6.c"	mode_6_step++;
0000fc   19a2     incr    0x22             	INCR	_mode_6_step
0000fd   290b     goto    0x10b            	GOTO	_00115_DS_
                                           _00114_DS_
                                           ;	.line	33; "display_qicailiushui6.c"	if( mode_6_step != 3 )
0000fe   1622     movar   0x22             	MOVAR	_mode_6_step
0000ff   0803     xorai   0x3              	XORAI	0x03
000100   3103     jbset   0x3, 0x2         	JBSET	STATUS,2
000101   2903     goto    0x103            	GOTO	_00147_DS_
000102   2904     goto    0x104            	GOTO	_00110_DS_
                                           _00147_DS_
                                           ;	.line	34; "display_qicailiushui6.c"	Time_Count--;
000103   1ba6     decr    0x26             	DECR	_Time_Count
                                           _00110_DS_
                                           ;	.line	36; "display_qicailiushui6.c"	if( Time_Count ==  0 )
000104   0b00     movai   0                	MOVAI	0x00
000105   1726     orar    0x26             	ORAR	_Time_Count
000106   3103     jbset   0x3, 0x2         	JBSET	STATUS,2
000107   290b     goto    0x10b            	GOTO	_00115_DS_
                                           ;	.line	38; "display_qicailiushui6.c"	flag1.back_F = 0;
000108   3c21     bclr    0x21, 0          	BCLR	_flag1,0
                                           ;	.line	39; "display_qicailiushui6.c"	led_color_deal();
000109   2022     call    0x22             	CALL	_led_color_deal
                                           ;	.line	40; "display_qicailiushui6.c"	mode_6_step++;
00010a   19a2     incr    0x22             	INCR	_mode_6_step
                                           _00115_DS_
                                           ;	.line	44; "display_qicailiushui6.c"	RGB_color_deal();
00010b   2023     call    0x23             	CALL	_RGB_color_deal
                                           ;	.line	46; "display_qicailiushui6.c"	led_num    = Time_Count;
00010c   1626     movar   0x26             	MOVAR	_Time_Count
00010d   15a4     movra   0x24             	MOVRA	_led_num
                                           ;	.line	47; "display_qicailiushui6.c"	send_all_byte();
00010e   2081     call    0x81             	CALL	_send_all_byte
                                           ;	.line	49; "display_qicailiushui6.c"	temp_byte_value = send_data_table_num_1_2 - Time_Count ;
00010f   1626     movar   0x26             	MOVAR	_Time_Count
000110   15a3     movra   0x23             	MOVRA	r0x1007
000111   1623     movar   0x23             	MOVAR	r0x1007
000112   090f     isubai  0xf              	ISUBAI	0x0f
000113   15b8     movra   0x38             	MOVRA	_temp_byte_value
                                           ;	.line	51; "display_qicailiushui6.c"	led_num = temp_byte_value + temp_byte_value;
000114   3c03     bclr    0x3, 0           	BCLR	STATUS,0
000115   1438     rlar    0x38             	RLAR	_temp_byte_value
000116   15a4     movra   0x24             	MOVRA	_led_num
                                           ;	.line	52; "display_qicailiushui6.c"	send_000();
000117   2068     call    0x68             	CALL	_send_000
                                           ;	.line	61; "display_qicailiushui6.c"	led_num    = Time_Count;
000118   1626     movar   0x26             	MOVAR	_Time_Count
000119   15a4     movra   0x24             	MOVRA	_led_num
                                           ;	.line	62; "display_qicailiushui6.c"	send_all_byte();
00011a   2081     call    0x81             	CALL	_send_all_byte
                                           _00118_DS_
                                           ;	.line	65; "display_qicailiushui6.c"	}
00011b   000c     return                   	RETURN	
                                           ; exit point of _RTC_mode_6_qicailiushui_012345_543210_time_deal
                                           
                                           
                                           ;	code size estimation:
                                           ;	   50+    0 =    50 instructions (  100 byte)
                                           
                                           	end
                                           ;--------------------------------------------------------
                                           ; File Created by SN-SDCC : SinoMCU ANSI-C Compiler
                                           ; Version 2.0.0 (Dec 11 2019) (MINGW32)
                                           ; This file was generated Sat Mar 09 11:29:05 2024
                                           ;--------------------------------------------------------
                                           ; MC30 port for the RISC core
                                           ;--------------------------------------------------------
                                           ;	.file	"HC_Color_table.c"
                                           	list	p=1K6280
                                           	radix dec
                                           	include "1K6280.inc"
                                           		LIST
                                           ;mc30p6280.inc    Standard Header File, Version 1.00 by Sinomcu
                                           		NOLIST
                                           ;--------------------------------------------------------
                                           ; external declarations
                                           ;--------------------------------------------------------
                                           	extern	_time_50us_tick_function
                                           	extern	_time_deal
                                           	extern	_Led_mode_deal
                                           	extern	_send_three_byte
                                           	extern	_send_one_byte
                                           	extern	_send_000
                                           	extern	_send_all_byte
                                           	extern	_RTC_mode_6_qicailiushui_012345_543210_time_deal
                                           	extern	_RGB_color_deal
                                           	extern	_led_color_deal
                                           	extern	_INDFbits
                                           	extern	_T0CNTbits
                                           	extern	_PCLbits
                                           	extern	_STATUSbits
                                           	extern	_FSRbits
                                           	extern	_P1bits
                                           	extern	_MCRbits
                                           	extern	_P1KBCRbits
                                           	extern	_PCLATHbits
                                           	extern	_PDCONbits
                                           	extern	_ODCONbits
                                           	extern	_PUCONbits
                                           	extern	_INTEbits
                                           	extern	_INTFbits
                                           	extern	_T0CRbits
                                           	extern	_DDR1bits
                                           	extern	_TMRCRbits
                                           	extern	_T1CRbits
                                           	extern	_T1CNTbits
                                           	extern	_T1LOADbits
                                           	extern	_T1DATAbits
                                           	extern	_time_50us_tick
                                           	extern	_time_1ms_tick
                                           	extern	_time_10ms_tick
                                           	extern	_Led_time_1ms_tick
                                           	extern	_IR_LED_ON_F
                                           	extern	_short_mode_init_F
                                           	extern	_led_level_temp
                                           	extern	_led_num
                                           	extern	_send_count
                                           	extern	_Time_Count
                                           	extern	_flag1
                                           	extern	_LED_R_PWM_expect
                                           	extern	_LED_G_PWM_expect
                                           	extern	_LED_B_PWM_expect
                                           	extern	_led_level_1_16
                                           	extern	_RTC_mode
                                           	extern	_RTC_led_level
                                           	extern	_Color_mode
                                           	extern	_led_mode
                                           	extern	_led_level
                                           	extern	_led_speed
                                           	extern	_temp_byte_value
                                           	extern	_LED_duty
                                           	extern	_INDF
                                           	extern	_T0CNT
                                           	extern	_PCL
                                           	extern	_STATUS
                                           	extern	_FSR
                                           	extern	_P1
                                           	extern	_MCR
                                           	extern	_P1KBCR
                                           	extern	_PCLATH
                                           	extern	_PDCON
                                           	extern	_ODCON
                                           	extern	_PUCON
                                           	extern	_INTE
                                           	extern	_INTF
                                           	extern	_T0CR
                                           	extern	_DDR1
                                           	extern	_TMRCR
                                           	extern	_T1CR
                                           	extern	_T1CNT
                                           	extern	_T1LOAD
                                           	extern	_T1DATA
                                           
                                           	extern STK06
                                           	extern STK05
                                           	extern STK04
                                           	extern STK03
                                           	extern STK02
                                           	extern STK01
                                           	extern STK00
                                           ;--------------------------------------------------------
                                           ; global declarations
                                           ;--------------------------------------------------------
                                           	global	_HC_R_LED_Color_LEVEL_TABLE
                                           	global	_HC_G_LED_Color_LEVEL_TABLE
                                           	global	_HC_B_LED_Color_LEVEL_TABLE
                                           
                                           ;--------------------------------------------------------
                                           ; global definitions
                                           ;--------------------------------------------------------
                                           ;--------------------------------------------------------
                                           ; absolute symbol definitions
                                           ;--------------------------------------------------------
                                           ;--------------------------------------------------------
                                           ; compiler-defined variables
                                           ;--------------------------------------------------------
                                           ;--------------------------------------------------------
                                           ; initialized data
                                           ;--------------------------------------------------------
                                           
                                           ID_HC_Color_table_0	code
                                           _HC_R_LED_Color_LEVEL_TABLE
00011c   0a00     retai   0                	retai 0x00
00011d   0af0     retai   0xf0             	retai 0xf0
00011e   0ae1     retai   0xe1             	retai 0xe1
00011f   0ad2     retai   0xd2             	retai 0xd2
000120   0ac3     retai   0xc3             	retai 0xc3
000121   0ab4     retai   0xb4             	retai 0xb4
000122   0aa5     retai   0xa5             	retai 0xa5
000123   0a96     retai   0x96             	retai 0x96
000124   0a87     retai   0x87             	retai 0x87
000125   0a78     retai   0x78             	retai 0x78
000126   0a69     retai   0x69             	retai 0x69
000127   0a5a     retai   0x5a             	retai 0x5a
000128   0a4b     retai   0x4b             	retai 0x4b
000129   0a3c     retai   0x3c             	retai 0x3c
00012a   0a2d     retai   0x2d             	retai 0x2d
00012b   0a1e     retai   0x1e             	retai 0x1e
00012c   0a0f     retai   0xf              	retai 0x0f
00012d   0a00     retai   0                	retai 0x00
00012e   0a00     retai   0                	retai 0x00
00012f   0a00     retai   0                	retai 0x00
000130   0a00     retai   0                	retai 0x00
000131   0a00     retai   0                	retai 0x00
000132   0a00     retai   0                	retai 0x00
000133   0a00     retai   0                	retai 0x00
000134   0a00     retai   0                	retai 0x00
000135   0a00     retai   0                	retai 0x00
000136   0a00     retai   0                	retai 0x00
000137   0a00     retai   0                	retai 0x00
000138   0a00     retai   0                	retai 0x00
000139   0a00     retai   0                	retai 0x00
00013a   0a00     retai   0                	retai 0x00
00013b   0a00     retai   0                	retai 0x00
00013c   0a00     retai   0                	retai 0x00
00013d   0a00     retai   0                	retai 0x00
00013e   0a0f     retai   0xf              	retai 0x0f
00013f   0a1e     retai   0x1e             	retai 0x1e
000140   0a2d     retai   0x2d             	retai 0x2d
000141   0a3c     retai   0x3c             	retai 0x3c
000142   0a4b     retai   0x4b             	retai 0x4b
000143   0a5a     retai   0x5a             	retai 0x5a
000144   0a69     retai   0x69             	retai 0x69
000145   0a78     retai   0x78             	retai 0x78
000146   0a87     retai   0x87             	retai 0x87
000147   0a96     retai   0x96             	retai 0x96
000148   0aa5     retai   0xa5             	retai 0xa5
000149   0ab4     retai   0xb4             	retai 0xb4
00014a   0ac3     retai   0xc3             	retai 0xc3
00014b   0ad2     retai   0xd2             	retai 0xd2
00014c   0ae1     retai   0xe1             	retai 0xe1
00014d   0a96     retai   0x96             	retai 0x96
                                           
                                           
                                           ID_HC_Color_table_1	code
                                           _HC_G_LED_Color_LEVEL_TABLE
00014e   0a00     retai   0                	retai 0x00
00014f   0a00     retai   0                	retai 0x00
000150   0a0f     retai   0xf              	retai 0x0f
000151   0a1e     retai   0x1e             	retai 0x1e
000152   0a2d     retai   0x2d             	retai 0x2d
000153   0a3c     retai   0x3c             	retai 0x3c
000154   0a4b     retai   0x4b             	retai 0x4b
000155   0a5a     retai   0x5a             	retai 0x5a
000156   0a69     retai   0x69             	retai 0x69
000157   0a78     retai   0x78             	retai 0x78
000158   0a87     retai   0x87             	retai 0x87
000159   0a96     retai   0x96             	retai 0x96
00015a   0aa5     retai   0xa5             	retai 0xa5
00015b   0ab4     retai   0xb4             	retai 0xb4
00015c   0ac3     retai   0xc3             	retai 0xc3
00015d   0ad2     retai   0xd2             	retai 0xd2
00015e   0ae1     retai   0xe1             	retai 0xe1
00015f   0af0     retai   0xf0             	retai 0xf0
000160   0ae1     retai   0xe1             	retai 0xe1
000161   0ad2     retai   0xd2             	retai 0xd2
000162   0ac3     retai   0xc3             	retai 0xc3
000163   0ab4     retai   0xb4             	retai 0xb4
000164   0aa5     retai   0xa5             	retai 0xa5
000165   0a96     retai   0x96             	retai 0x96
000166   0a87     retai   0x87             	retai 0x87
000167   0a78     retai   0x78             	retai 0x78
000168   0a69     retai   0x69             	retai 0x69
000169   0a5a     retai   0x5a             	retai 0x5a
00016a   0a4b     retai   0x4b             	retai 0x4b
00016b   0a3c     retai   0x3c             	retai 0x3c
00016c   0a2d     retai   0x2d             	retai 0x2d
00016d   0a1e     retai   0x1e             	retai 0x1e
00016e   0a0f     retai   0xf              	retai 0x0f
00016f   0a00     retai   0                	retai 0x00
000170   0a00     retai   0                	retai 0x00
000171   0a00     retai   0                	retai 0x00
000172   0a00     retai   0                	retai 0x00
000173   0a00     retai   0                	retai 0x00
000174   0a00     retai   0                	retai 0x00
000175   0a00     retai   0                	retai 0x00
000176   0a00     retai   0                	retai 0x00
000177   0a00     retai   0                	retai 0x00
000178   0a00     retai   0                	retai 0x00
000179   0a00     retai   0                	retai 0x00
00017a   0a00     retai   0                	retai 0x00
00017b   0a00     retai   0                	retai 0x00
00017c   0a00     retai   0                	retai 0x00
00017d   0a00     retai   0                	retai 0x00
00017e   0a00     retai   0                	retai 0x00
00017f   0a96     retai   0x96             	retai 0x96
                                           
                                           
                                           ID_HC_Color_table_2	code
                                           _HC_B_LED_Color_LEVEL_TABLE
000180   0a00     retai   0                	retai 0x00
000181   0a00     retai   0                	retai 0x00
000182   0a00     retai   0                	retai 0x00
000183   0a00     retai   0                	retai 0x00
000184   0a00     retai   0                	retai 0x00
000185   0a00     retai   0                	retai 0x00
000186   0a00     retai   0                	retai 0x00
000187   0a00     retai   0                	retai 0x00
000188   0a00     retai   0                	retai 0x00
000189   0a00     retai   0                	retai 0x00
00018a   0a00     retai   0                	retai 0x00
00018b   0a00     retai   0                	retai 0x00
00018c   0a00     retai   0                	retai 0x00
00018d   0a00     retai   0                	retai 0x00
00018e   0a00     retai   0                	retai 0x00
00018f   0a00     retai   0                	retai 0x00
000190   0a00     retai   0                	retai 0x00
000191   0a00     retai   0                	retai 0x00
000192   0a0f     retai   0xf              	retai 0x0f
000193   0a1e     retai   0x1e             	retai 0x1e
000194   0a2d     retai   0x2d             	retai 0x2d
000195   0a3c     retai   0x3c             	retai 0x3c
000196   0a4b     retai   0x4b             	retai 0x4b
000197   0a5a     retai   0x5a             	retai 0x5a
000198   0a69     retai   0x69             	retai 0x69
000199   0a78     retai   0x78             	retai 0x78
00019a   0a87     retai   0x87             	retai 0x87
00019b   0a96     retai   0x96             	retai 0x96
00019c   0aa5     retai   0xa5             	retai 0xa5
00019d   0ab4     retai   0xb4             	retai 0xb4
00019e   0ac3     retai   0xc3             	retai 0xc3
00019f   0ad2     retai   0xd2             	retai 0xd2
0001a0   0ae1     retai   0xe1             	retai 0xe1
0001a1   0af0     retai   0xf0             	retai 0xf0
0001a2   0ae1     retai   0xe1             	retai 0xe1
0001a3   0ad2     retai   0xd2             	retai 0xd2
0001a4   0ac3     retai   0xc3             	retai 0xc3
0001a5   0ab4     retai   0xb4             	retai 0xb4
0001a6   0aa5     retai   0xa5             	retai 0xa5
0001a7   0a96     retai   0x96             	retai 0x96
0001a8   0a87     retai   0x87             	retai 0x87
0001a9   0a78     retai   0x78             	retai 0x78
0001aa   0a69     retai   0x69             	retai 0x69
0001ab   0a5a     retai   0x5a             	retai 0x5a
0001ac   0a4b     retai   0x4b             	retai 0x4b
0001ad   0a3c     retai   0x3c             	retai 0x3c
0001ae   0a2d     retai   0x2d             	retai 0x2d
0001af   0a1e     retai   0x1e             	retai 0x1e
0001b0   0a0f     retai   0xf              	retai 0x0f
0001b1   0a96     retai   0x96             	retai 0x96
                                           
                                           ;--------------------------------------------------------
                                           ; overlayable items in internal ram 
                                           ;--------------------------------------------------------
                                           ;	udata_ovr
                                           ;--------------------------------------------------------
                                           ; code
                                           ;--------------------------------------------------------
                                           code_HC_Color_table	code
                                           
                                           ;	code size estimation:
                                           ;	    0+    0 =     0 instructions (    0 byte)
                                           
                                           	end
                                           ;--------------------------------------------------------
                                           ; File Created by SN-SDCC : SinoMCU ANSI-C Compiler
                                           ; Version 2.0.0 (Dec 11 2019) (MINGW32)
                                           ; This file was generated Sat Mar 09 11:29:05 2024
                                           ;--------------------------------------------------------
                                           ; MC30 port for the RISC core
                                           ;--------------------------------------------------------
                                           ;	.file	"HC_send.c"
                                           	list	p=1K6280
                                           	radix dec
                                           	include "1K6280.inc"
                                           		LIST
                                           ;mc30p6280.inc    Standard Header File, Version 1.00 by Sinomcu
                                           		NOLIST
                                           ;--------------------------------------------------------
                                           ; external declarations
                                           ;--------------------------------------------------------
                                           	extern	_time_50us_tick_function
                                           	extern	_time_deal
                                           	extern	_Led_mode_deal
                                           	extern	_RTC_mode_6_qicailiushui_012345_543210_time_deal
                                           	extern	_RGB_color_deal
                                           	extern	_led_color_deal
                                           	extern	_INDFbits
                                           	extern	_T0CNTbits
                                           	extern	_PCLbits
                                           	extern	_STATUSbits
                                           	extern	_FSRbits
                                           	extern	_P1bits
                                           	extern	_MCRbits
                                           	extern	_P1KBCRbits
                                           	extern	_PCLATHbits
                                           	extern	_PDCONbits
                                           	extern	_ODCONbits
                                           	extern	_PUCONbits
                                           	extern	_INTEbits
                                           	extern	_INTFbits
                                           	extern	_T0CRbits
                                           	extern	_DDR1bits
                                           	extern	_TMRCRbits
                                           	extern	_T1CRbits
                                           	extern	_T1CNTbits
                                           	extern	_T1LOADbits
                                           	extern	_T1DATAbits
                                           	extern	_time_50us_tick
                                           	extern	_time_1ms_tick
                                           	extern	_time_10ms_tick
                                           	extern	_Led_time_1ms_tick
                                           	extern	_IR_LED_ON_F
                                           	extern	_short_mode_init_F
                                           	extern	_flag1
                                           	extern	_LED_R_PWM_expect
                                           	extern	_LED_G_PWM_expect
                                           	extern	_LED_B_PWM_expect
                                           	extern	_led_level_1_16
                                           	extern	_RTC_mode
                                           	extern	_RTC_led_level
                                           	extern	_Color_mode
                                           	extern	_led_mode
                                           	extern	_led_level
                                           	extern	_led_speed
                                           	extern	_temp_byte_value
                                           	extern	_LED_duty
                                           	extern	_HC_R_LED_Color_LEVEL_TABLE
                                           	extern	_HC_G_LED_Color_LEVEL_TABLE
                                           	extern	_HC_B_LED_Color_LEVEL_TABLE
                                           	extern	_INDF
                                           	extern	_T0CNT
                                           	extern	_PCL
                                           	extern	_STATUS
                                           	extern	_FSR
                                           	extern	_P1
                                           	extern	_MCR
                                           	extern	_P1KBCR
                                           	extern	_PCLATH
                                           	extern	_PDCON
                                           	extern	_ODCON
                                           	extern	_PUCON
                                           	extern	_INTE
                                           	extern	_INTF
                                           	extern	_T0CR
                                           	extern	_DDR1
                                           	extern	_TMRCR
                                           	extern	_T1CR
                                           	extern	_T1CNT
                                           	extern	_T1LOAD
                                           	extern	_T1DATA
                                           
                                           	extern STK06
                                           	extern STK05
                                           	extern STK04
                                           	extern STK03
                                           	extern STK02
                                           	extern STK01
                                           	extern STK00
                                           ;--------------------------------------------------------
                                           ; global declarations
                                           ;--------------------------------------------------------
                                           	global	_send_000
                                           	global	_send_three_byte
                                           	global	_send_all_byte
                                           	global	_send_one_byte
                                           	global	_led_num
                                           	global	_send_count
                                           	global	_Time_Count
                                           	global	_led_level_temp
                                           
                                           ;--------------------------------------------------------
                                           ; global definitions
                                           ;--------------------------------------------------------
                                           UD_HC_send_0	udata
                                           _led_num	res	1
                                           
                                           UD_HC_send_1	udata
                                           _send_count	res	1
                                           
                                           UD_HC_send_2	udata
                                           _Time_Count	res	1
                                           
                                           UD_HC_send_3	udata
                                           _led_level_temp	res	1
                                           
                                           ;--------------------------------------------------------
                                           ; absolute symbol definitions
                                           ;--------------------------------------------------------
                                           ;--------------------------------------------------------
                                           ; compiler-defined variables
                                           ;--------------------------------------------------------
                                           UDL_HC_send_0	udata
                                           r0x1005	res	1
                                           r0x1006	res	1
                                           r0x1008	res	1
                                           r0x1007	res	1
                                           ;--------------------------------------------------------
                                           ; initialized data
                                           ;--------------------------------------------------------
                                           
                                           ;@Allocation info for local variables in function 'send_one_byte'
                                           ;@send_one_byte time_50us_tick_function   Allocated to registers ;size:2
                                           ;@send_one_byte time_deal                 Allocated to registers ;size:2
                                           ;@send_one_byte Led_mode_deal             Allocated to registers ;size:2
                                           ;@send_one_byte RTC_mode_6_qicailiushui_012345_543210_time_deal Allocated to registers ;size:2
                                           ;@send_one_byte RGB_color_deal            Allocated to registers ;size:2
                                           ;@send_one_byte led_color_deal            Allocated to registers ;size:2
                                           ;@send_one_byte send_three_byte           Allocated to registers ;size:2
                                           ;@send_one_byte send_all_byte             Allocated to registers ;size:2
                                           ;@send_one_byte send_000                  Allocated to registers ;size:2
                                           ;@send_one_byte INDFbits                  Allocated to registers ;size:1
                                           ;@send_one_byte T0CNTbits                 Allocated to registers ;size:1
                                           ;@send_one_byte PCLbits                   Allocated to registers ;size:1
                                           ;@send_one_byte STATUSbits                Allocated to registers ;size:1
                                           ;@send_one_byte FSRbits                   Allocated to registers ;size:1
                                           ;@send_one_byte P1bits                    Allocated to registers ;size:1
                                           ;@send_one_byte MCRbits                   Allocated to registers ;size:1
                                           ;@send_one_byte P1KBCRbits                Allocated to registers ;size:1
                                           ;@send_one_byte PCLATHbits                Allocated to registers ;size:1
                                           ;@send_one_byte PDCONbits                 Allocated to registers ;size:1
                                           ;@send_one_byte ODCONbits                 Allocated to registers ;size:1
                                           ;@send_one_byte PUCONbits                 Allocated to registers ;size:1
                                           ;@send_one_byte INTEbits                  Allocated to registers ;size:1
                                           ;@send_one_byte INTFbits                  Allocated to registers ;size:1
                                           ;@send_one_byte T0CRbits                  Allocated to registers ;size:1
                                           ;@send_one_byte DDR1bits                  Allocated to registers ;size:1
                                           ;@send_one_byte TMRCRbits                 Allocated to registers ;size:1
                                           ;@send_one_byte T1CRbits                  Allocated to registers ;size:1
                                           ;@send_one_byte T1CNTbits                 Allocated to registers ;size:1
                                           ;@send_one_byte T1LOADbits                Allocated to registers ;size:1
                                           ;@send_one_byte T1DATAbits                Allocated to registers ;size:1
                                           ;@send_one_byte time_50us_tick            Allocated to registers ;size:1
                                           ;@send_one_byte time_1ms_tick             Allocated to registers ;size:1
                                           ;@send_one_byte time_10ms_tick            Allocated to registers ;size:1
                                           ;@send_one_byte Led_time_1ms_tick         Allocated to registers ;size:1
                                           ;@send_one_byte IR_LED_ON_F               Allocated to registers ;size:1
                                           ;@send_one_byte short_mode_init_F         Allocated to registers ;size:1
                                           ;@send_one_byte flag1                     Allocated to registers ;size:1
                                           ;@send_one_byte LED_R_PWM_expect          Allocated to registers ;size:1
                                           ;@send_one_byte LED_G_PWM_expect          Allocated to registers ;size:1
                                           ;@send_one_byte LED_B_PWM_expect          Allocated to registers ;size:1
                                           ;@send_one_byte led_level_1_16            Allocated to registers ;size:1
                                           ;@send_one_byte RTC_mode                  Allocated to registers ;size:1
                                           ;@send_one_byte RTC_led_level             Allocated to registers ;size:1
                                           ;@send_one_byte Color_mode                Allocated to registers ;size:1
                                           ;@send_one_byte led_mode                  Allocated to registers ;size:1
                                           ;@send_one_byte led_level                 Allocated to registers ;size:1
                                           ;@send_one_byte led_speed                 Allocated to registers ;size:1
                                           ;@send_one_byte temp_byte_value           Allocated to registers ;size:1
                                           ;@send_one_byte LED_duty                  Allocated to registers ;size:1
                                           ;@send_one_byte led_num                   Allocated to registers ;size:1
                                           ;@send_one_byte send_count                Allocated to registers ;size:1
                                           ;@send_one_byte Time_Count                Allocated to registers ;size:1
                                           ;@send_one_byte led_level_temp            Allocated to registers ;size:1
                                           ;@send_one_byte send_long                 Allocated to registers r0x1005 ;size:1
                                           ;@send_one_byte INDF                      Allocated to registers ;size:1
                                           ;@send_one_byte T0CNT                     Allocated to registers ;size:1
                                           ;@send_one_byte PCL                       Allocated to registers ;size:1
                                           ;@send_one_byte STATUS                    Allocated to registers ;size:1
                                           ;@send_one_byte FSR                       Allocated to registers ;size:1
                                           ;@send_one_byte P1                        Allocated to registers ;size:1
                                           ;@send_one_byte MCR                       Allocated to registers ;size:1
                                           ;@send_one_byte P1KBCR                    Allocated to registers ;size:1
                                           ;@send_one_byte PCLATH                    Allocated to registers ;size:1
                                           ;@send_one_byte PDCON                     Allocated to registers ;size:1
                                           ;@send_one_byte ODCON                     Allocated to registers ;size:1
                                           ;@send_one_byte PUCON                     Allocated to registers ;size:1
                                           ;@send_one_byte INTE                      Allocated to registers ;size:1
                                           ;@send_one_byte INTF                      Allocated to registers ;size:1
                                           ;@send_one_byte T0CR                      Allocated to registers ;size:1
                                           ;@send_one_byte DDR1                      Allocated to registers ;size:1
                                           ;@send_one_byte TMRCR                     Allocated to registers ;size:1
                                           ;@send_one_byte T1CR                      Allocated to registers ;size:1
                                           ;@send_one_byte T1CNT                     Allocated to registers ;size:1
                                           ;@send_one_byte T1LOAD                    Allocated to registers ;size:1
                                           ;@send_one_byte T1DATA                    Allocated to registers ;size:1
                                           ;@end Allocation info for local variables in function 'send_one_byte';
                                           ;@Allocation info for local variables in function 'send_all_byte'
                                           ;@end Allocation info for local variables in function 'send_all_byte';
                                           ;@Allocation info for local variables in function 'send_three_byte'
                                           ;@end Allocation info for local variables in function 'send_three_byte';
                                           ;@Allocation info for local variables in function 'send_000'
                                           ;@end Allocation info for local variables in function 'send_000';
                                           
                                           ;--------------------------------------------------------
                                           ; overlayable items in internal ram 
                                           ;--------------------------------------------------------
                                           ;	udata_ovr
                                           ;--------------------------------------------------------
                                           ; code
                                           ;--------------------------------------------------------
                                           code_HC_send	code
                                           ;***
                                           ;  pBlock Stats: dbName = C
                                           ;***
                                           ;entry:  _send_000	;Function start
                                           ; 2 exit points
                                           ;has an exit
                                           ;functions called:
                                           ;   _send_one_byte
                                           ;   _send_one_byte
                                           ;   _send_one_byte
                                           ;   _send_one_byte
                                           ;   _send_one_byte
                                           ;   _send_one_byte
                                           ;1 compiler assigned register :
                                           ;   r0x1007
                                           ;; Starting pCode block
                                           _send_000	;Function start
                                           ; 2 exit points
                                           _00130_DS_
                                           ;	.line	112; "HC_send.c"	while( led_num -- )
000068   1624     movar   0x24             	MOVAR	_led_num
000069   159a     movra   0x1a             	MOVRA	r0x1007
00006a   1ba4     decr    0x24             	DECR	_led_num
00006b   0b00     movai   0                	MOVAI	0x00
00006c   171a     orar    0x1a             	ORAR	r0x1007
00006d   3503     jbclr   0x3, 0x2         	JBCLR	STATUS,2
00006e   2876     goto    0x76             	GOTO	_00133_DS_
                                           ;	.line	114; "HC_send.c"	led_level_temp = 0;
00006f   1da7     clrr    0x27             	CLRR	_led_level_temp
                                           ;	.line	115; "HC_send.c"	send_one_byte(  );// 
000070   208b     call    0x8b             	CALL	_send_one_byte
                                           ;	.line	116; "HC_send.c"	led_level_temp = 0;
000071   1da7     clrr    0x27             	CLRR	_led_level_temp
                                           ;	.line	117; "HC_send.c"	send_one_byte(  );// 
000072   208b     call    0x8b             	CALL	_send_one_byte
                                           ;	.line	118; "HC_send.c"	led_level_temp = 0;
000073   1da7     clrr    0x27             	CLRR	_led_level_temp
                                           ;	.line	119; "HC_send.c"	send_one_byte(  );// 
000074   208b     call    0x8b             	CALL	_send_one_byte
000075   2868     goto    0x68             	GOTO	_00130_DS_
                                           _00133_DS_
                                           ;	.line	122; "HC_send.c"	}
000076   000c     return                   	RETURN	
                                           ; exit point of _send_000
                                           
                                           ;***
                                           ;  pBlock Stats: dbName = C
                                           ;***
                                           ;entry:  _send_three_byte	;Function start
                                           ; 2 exit points
                                           ;has an exit
                                           ;functions called:
                                           ;   _send_one_byte
                                           ;   _send_one_byte
                                           ;   _send_one_byte
                                           ;   _send_one_byte
                                           ;   _send_one_byte
                                           ;   _send_one_byte
                                           ;; Starting pCode block
                                           _send_three_byte	;Function start
                                           ; 2 exit points
                                           ;	.line	86; "HC_send.c"	led_level_temp = LED_G_PWM_expect ;
000077   162f     movar   0x2f             	MOVAR	_LED_G_PWM_expect
000078   15a7     movra   0x27             	MOVRA	_led_level_temp
                                           ;	.line	87; "HC_send.c"	send_one_byte(  );// 
000079   208b     call    0x8b             	CALL	_send_one_byte
                                           ;	.line	88; "HC_send.c"	led_level_temp = LED_R_PWM_expect;
00007a   162e     movar   0x2e             	MOVAR	_LED_R_PWM_expect
00007b   15a7     movra   0x27             	MOVRA	_led_level_temp
                                           ;	.line	89; "HC_send.c"	send_one_byte(  );// 
00007c   208b     call    0x8b             	CALL	_send_one_byte
                                           ;	.line	90; "HC_send.c"	led_level_temp = LED_B_PWM_expect;
00007d   1630     movar   0x30             	MOVAR	_LED_B_PWM_expect
00007e   15a7     movra   0x27             	MOVRA	_led_level_temp
                                           ;	.line	91; "HC_send.c"	send_one_byte(  );//
00007f   208b     call    0x8b             	CALL	_send_one_byte
                                           ;	.line	104; "HC_send.c"	}
000080   000c     return                   	RETURN	
                                           ; exit point of _send_three_byte
                                           
                                           ;***
                                           ;  pBlock Stats: dbName = C
                                           ;***
                                           ;entry:  _send_all_byte	;Function start
                                           ; 2 exit points
                                           ;has an exit
                                           ;functions called:
                                           ;   _send_three_byte
                                           ;   _send_three_byte
                                           ;1 compiler assigned register :
                                           ;   r0x1008
                                           ;; Starting pCode block
                                           _send_all_byte	;Function start
                                           ; 2 exit points
                                           _00118_DS_
                                           ;	.line	75; "HC_send.c"	while( led_num -- )
000081   1624     movar   0x24             	MOVAR	_led_num
000082   1599     movra   0x19             	MOVRA	r0x1008
000083   1ba4     decr    0x24             	DECR	_led_num
000084   0b00     movai   0                	MOVAI	0x00
000085   1719     orar    0x19             	ORAR	r0x1008
000086   3503     jbclr   0x3, 0x2         	JBCLR	STATUS,2
000087   288a     goto    0x8a             	GOTO	_00121_DS_
                                           ;	.line	77; "HC_send.c"	send_three_byte (); // send_one_cur_adc   INIT_LEVEL_TAB
000088   2077     call    0x77             	CALL	_send_three_byte
000089   2881     goto    0x81             	GOTO	_00118_DS_
                                           _00121_DS_
                                           ;	.line	80; "HC_send.c"	}
00008a   000c     return                   	RETURN	
                                           ; exit point of _send_all_byte
                                           
                                           ;***
                                           ;  pBlock Stats: dbName = C
                                           ;***
                                           ;entry:  _send_one_byte	;Function start
                                           ; 2 exit points
                                           ;has an exit
                                           ;2 compiler assigned registers:
                                           ;   r0x1005
                                           ;   r0x1006
                                           ;; Starting pCode block
                                           _send_one_byte	;Function start
                                           ; 2 exit points
                                           ;	.line	25; "HC_send.c"	byte send_long = 8;
00008b   0b08     movai   0x8              	MOVAI	0x08
00008c   1597     movra   0x17             	MOVRA	r0x1005
                                           _00105_DS_
                                           ;	.line	29; "HC_send.c"	if( send_long )
00008d   0b00     movai   0                	MOVAI	0x00
00008e   1717     orar    0x17             	ORAR	r0x1005
00008f   3503     jbclr   0x3, 0x2         	JBCLR	STATUS,2
000090   2896     goto    0x96             	GOTO	_00109_DS_
                                           ;	.line	31; "HC_send.c"	if( led_level_temp & 0x80 )
000091   1627     movar   0x27             	MOVAR	_led_level_temp
000092   1598     movra   0x18             	MOVRA	r0x1006
000093   3398     jbset   0x18, 0x7        	JBSET	r0x1006,7
000094   2897     goto    0x97             	GOTO	_00111_DS_
                                           ;	.line	32; "HC_send.c"	GOTO SEND_BYTE1_BIT_H;
000095   28a0     goto    0xa0             	GOTO	_00112_DS_
                                           _00109_DS_
                                           ;	.line	36; "HC_send.c"	return;
000096   28ab     goto    0xab             	GOTO	_00113_DS_
                                           _00111_DS_
                                           ;	.line	40; "HC_send.c"	WS2812_IO = 1;// 250ns
000097   3906     bset    0x6, 0x2         	BSET	_P1bits,2
                                           ;	.line	46; "HC_send.c"	WS2812_IO = 0;// 750ns
000098   3d06     bclr    0x6, 0x2         	BCLR	_P1bits,2
                                           ;	.line	47; "HC_send.c"	led_level_temp = led_level_temp<<1;
000099   1627     movar   0x27             	MOVAR	_led_level_temp
00009a   1598     movra   0x18             	MOVRA	r0x1006
00009b   3c03     bclr    0x3, 0           	BCLR	STATUS,0
00009c   1418     rlar    0x18             	RLAR	r0x1006
00009d   15a7     movra   0x27             	MOVRA	_led_level_temp
                                           ;	.line	48; "HC_send.c"	send_long--;
00009e   1b97     decr    0x17             	DECR	r0x1005
                                           ;	.line	49; "HC_send.c"	GOTO SEND_BYTE1_LOOP;
00009f   288d     goto    0x8d             	GOTO	_00105_DS_
                                           _00112_DS_
                                           ;	.line	53; "HC_send.c"	WS2812_IO = 1;// 250ns
0000a0   3906     bset    0x6, 0x2         	BSET	_P1bits,2
                                           ;	.line	54; "HC_send.c"	WS2812_IO = 1;// 250ns
0000a1   3906     bset    0x6, 0x2         	BSET	_P1bits,2
                                           ;	.line	55; "HC_send.c"	WS2812_IO = 1;// 250ns
0000a2   3906     bset    0x6, 0x2         	BSET	_P1bits,2
                                           ;	.line	62; "HC_send.c"	WS2812_IO = 0;// 750ns
0000a3   3d06     bclr    0x6, 0x2         	BCLR	_P1bits,2
                                           ;	.line	63; "HC_send.c"	led_level_temp = led_level_temp<<1;
0000a4   1627     movar   0x27             	MOVAR	_led_level_temp
0000a5   1598     movra   0x18             	MOVRA	r0x1006
0000a6   3c03     bclr    0x3, 0           	BCLR	STATUS,0
0000a7   1418     rlar    0x18             	RLAR	r0x1006
0000a8   15a7     movra   0x27             	MOVRA	_led_level_temp
                                           ;	.line	64; "HC_send.c"	send_long--;
0000a9   1b97     decr    0x17             	DECR	r0x1005
                                           ;	.line	65; "HC_send.c"	GOTO SEND_BYTE1_LOOP;
0000aa   288d     goto    0x8d             	GOTO	_00105_DS_
                                           _00113_DS_
                                           ;	.line	67; "HC_send.c"	}
0000ab   000c     return                   	RETURN	
                                           ; exit point of _send_one_byte
                                           
                                           
                                           ;	code size estimation:
                                           ;	   68+    0 =    68 instructions (  136 byte)
                                           
                                           	end
                                           ;--------------------------------------------------------
                                           ; File Created by SN-SDCC : SinoMCU ANSI-C Compiler
                                           ; Version 2.0.0 (Dec 11 2019) (MINGW32)
                                           ; This file was generated Sat Mar 09 11:29:05 2024
                                           ;--------------------------------------------------------
                                           ; MC30 port for the RISC core
                                           ;--------------------------------------------------------
                                           ;	.file	"Init.c"
                                           	list	p=1K6280
                                           	radix dec
                                           	include "1K6280.inc"
                                           		LIST
                                           ;mc30p6280.inc    Standard Header File, Version 1.00 by Sinomcu
                                           		NOLIST
                                           ;--------------------------------------------------------
                                           ; external declarations
                                           ;--------------------------------------------------------
                                           	extern	_time_50us_tick_function
                                           	extern	_time_deal
                                           	extern	_send_three_byte
                                           	extern	_send_one_byte
                                           	extern	_send_000
                                           	extern	_send_all_byte
                                           	extern	_RTC_mode_6_qicailiushui_012345_543210_time_deal
                                           	extern	_RGB_color_deal
                                           	extern	_led_color_deal
                                           	extern	_INDFbits
                                           	extern	_T0CNTbits
                                           	extern	_PCLbits
                                           	extern	_STATUSbits
                                           	extern	_FSRbits
                                           	extern	_P1bits
                                           	extern	_MCRbits
                                           	extern	_P1KBCRbits
                                           	extern	_PCLATHbits
                                           	extern	_PDCONbits
                                           	extern	_ODCONbits
                                           	extern	_PUCONbits
                                           	extern	_INTEbits
                                           	extern	_INTFbits
                                           	extern	_T0CRbits
                                           	extern	_DDR1bits
                                           	extern	_TMRCRbits
                                           	extern	_T1CRbits
                                           	extern	_T1CNTbits
                                           	extern	_T1LOADbits
                                           	extern	_T1DATAbits
                                           	extern	_time_50us_tick
                                           	extern	_time_1ms_tick
                                           	extern	_time_10ms_tick
                                           	extern	_Led_time_1ms_tick
                                           	extern	_led_level_temp
                                           	extern	_led_num
                                           	extern	_send_count
                                           	extern	_Time_Count
                                           	extern	_flag1
                                           	extern	_LED_R_PWM_expect
                                           	extern	_LED_G_PWM_expect
                                           	extern	_LED_B_PWM_expect
                                           	extern	_led_level_1_16
                                           	extern	_RTC_mode
                                           	extern	_RTC_led_level
                                           	extern	_Color_mode
                                           	extern	_led_mode
                                           	extern	_led_level
                                           	extern	_led_speed
                                           	extern	_temp_byte_value
                                           	extern	_LED_duty
                                           	extern	_HC_R_LED_Color_LEVEL_TABLE
                                           	extern	_HC_G_LED_Color_LEVEL_TABLE
                                           	extern	_HC_B_LED_Color_LEVEL_TABLE
                                           	extern	_INDF
                                           	extern	_T0CNT
                                           	extern	_PCL
                                           	extern	_STATUS
                                           	extern	_FSR
                                           	extern	_P1
                                           	extern	_MCR
                                           	extern	_P1KBCR
                                           	extern	_PCLATH
                                           	extern	_PDCON
                                           	extern	_ODCON
                                           	extern	_PUCON
                                           	extern	_INTE
                                           	extern	_INTF
                                           	extern	_T0CR
                                           	extern	_DDR1
                                           	extern	_TMRCR
                                           	extern	_T1CR
                                           	extern	_T1CNT
                                           	extern	_T1LOAD
                                           	extern	_T1DATA
                                           
                                           	extern STK06
                                           	extern STK05
                                           	extern STK04
                                           	extern STK03
                                           	extern STK02
                                           	extern STK01
                                           	extern STK00
                                           ;--------------------------------------------------------
                                           ; global declarations
                                           ;--------------------------------------------------------
                                           	global	_Led_mode_deal
                                           	global	_IR_LED_ON_F
                                           	global	_short_mode_init_F
                                           
                                           ;--------------------------------------------------------
                                           ; global definitions
                                           ;--------------------------------------------------------
                                           UD_Init_0	udata
                                           _IR_LED_ON_F	res	1
                                           
                                           UD_Init_1	udata
                                           _short_mode_init_F	res	1
                                           
                                           ;--------------------------------------------------------
                                           ; absolute symbol definitions
                                           ;--------------------------------------------------------
                                           ;--------------------------------------------------------
                                           ; compiler-defined variables
                                           ;--------------------------------------------------------
                                           UDL_Init_0	udata
                                           r0x1005	res	1
                                           ;--------------------------------------------------------
                                           ; initialized data
                                           ;--------------------------------------------------------
                                           
                                           ;@Allocation info for local variables in function 'Led_mode_deal'
                                           ;@Led_mode_deal time_50us_tick_function   Allocated to registers ;size:2
                                           ;@Led_mode_deal time_deal                 Allocated to registers ;size:2
                                           ;@Led_mode_deal send_three_byte           Allocated to registers ;size:2
                                           ;@Led_mode_deal send_one_byte             Allocated to registers ;size:2
                                           ;@Led_mode_deal send_000                  Allocated to registers ;size:2
                                           ;@Led_mode_deal send_all_byte             Allocated to registers ;size:2
                                           ;@Led_mode_deal RTC_mode_6_qicailiushui_012345_543210_time_deal Allocated to registers ;size:2
                                           ;@Led_mode_deal RGB_color_deal            Allocated to registers ;size:2
                                           ;@Led_mode_deal led_color_deal            Allocated to registers ;size:2
                                           ;@Led_mode_deal INDFbits                  Allocated to registers ;size:1
                                           ;@Led_mode_deal T0CNTbits                 Allocated to registers ;size:1
                                           ;@Led_mode_deal PCLbits                   Allocated to registers ;size:1
                                           ;@Led_mode_deal STATUSbits                Allocated to registers ;size:1
                                           ;@Led_mode_deal FSRbits                   Allocated to registers ;size:1
                                           ;@Led_mode_deal P1bits                    Allocated to registers ;size:1
                                           ;@Led_mode_deal MCRbits                   Allocated to registers ;size:1
                                           ;@Led_mode_deal P1KBCRbits                Allocated to registers ;size:1
                                           ;@Led_mode_deal PCLATHbits                Allocated to registers ;size:1
                                           ;@Led_mode_deal PDCONbits                 Allocated to registers ;size:1
                                           ;@Led_mode_deal ODCONbits                 Allocated to registers ;size:1
                                           ;@Led_mode_deal PUCONbits                 Allocated to registers ;size:1
                                           ;@Led_mode_deal INTEbits                  Allocated to registers ;size:1
                                           ;@Led_mode_deal INTFbits                  Allocated to registers ;size:1
                                           ;@Led_mode_deal T0CRbits                  Allocated to registers ;size:1
                                           ;@Led_mode_deal DDR1bits                  Allocated to registers ;size:1
                                           ;@Led_mode_deal TMRCRbits                 Allocated to registers ;size:1
                                           ;@Led_mode_deal T1CRbits                  Allocated to registers ;size:1
                                           ;@Led_mode_deal T1CNTbits                 Allocated to registers ;size:1
                                           ;@Led_mode_deal T1LOADbits                Allocated to registers ;size:1
                                           ;@Led_mode_deal T1DATAbits                Allocated to registers ;size:1
                                           ;@Led_mode_deal time_50us_tick            Allocated to registers ;size:1
                                           ;@Led_mode_deal time_1ms_tick             Allocated to registers ;size:1
                                           ;@Led_mode_deal time_10ms_tick            Allocated to registers ;size:1
                                           ;@Led_mode_deal Led_time_1ms_tick         Allocated to registers ;size:1
                                           ;@Led_mode_deal led_level_temp            Allocated to registers ;size:1
                                           ;@Led_mode_deal led_num                   Allocated to registers ;size:1
                                           ;@Led_mode_deal send_count                Allocated to registers ;size:1
                                           ;@Led_mode_deal Time_Count                Allocated to registers ;size:1
                                           ;@Led_mode_deal flag1                     Allocated to registers ;size:1
                                           ;@Led_mode_deal LED_R_PWM_expect          Allocated to registers ;size:1
                                           ;@Led_mode_deal LED_G_PWM_expect          Allocated to registers ;size:1
                                           ;@Led_mode_deal LED_B_PWM_expect          Allocated to registers ;size:1
                                           ;@Led_mode_deal led_level_1_16            Allocated to registers ;size:1
                                           ;@Led_mode_deal RTC_mode                  Allocated to registers ;size:1
                                           ;@Led_mode_deal RTC_led_level             Allocated to registers ;size:1
                                           ;@Led_mode_deal Color_mode                Allocated to registers ;size:1
                                           ;@Led_mode_deal led_mode                  Allocated to registers ;size:1
                                           ;@Led_mode_deal led_level                 Allocated to registers ;size:1
                                           ;@Led_mode_deal led_speed                 Allocated to registers ;size:1
                                           ;@Led_mode_deal temp_byte_value           Allocated to registers ;size:1
                                           ;@Led_mode_deal LED_duty                  Allocated to registers ;size:1
                                           ;@Led_mode_deal IR_LED_ON_F               Allocated to registers ;size:1
                                           ;@Led_mode_deal short_mode_init_F         Allocated to registers ;size:1
                                           ;@Led_mode_deal INDF                      Allocated to registers ;size:1
                                           ;@Led_mode_deal T0CNT                     Allocated to registers ;size:1
                                           ;@Led_mode_deal PCL                       Allocated to registers ;size:1
                                           ;@Led_mode_deal STATUS                    Allocated to registers ;size:1
                                           ;@Led_mode_deal FSR                       Allocated to registers ;size:1
                                           ;@Led_mode_deal P1                        Allocated to registers ;size:1
                                           ;@Led_mode_deal MCR                       Allocated to registers ;size:1
                                           ;@Led_mode_deal P1KBCR                    Allocated to registers ;size:1
                                           ;@Led_mode_deal PCLATH                    Allocated to registers ;size:1
                                           ;@Led_mode_deal PDCON                     Allocated to registers ;size:1
                                           ;@Led_mode_deal ODCON                     Allocated to registers ;size:1
                                           ;@Led_mode_deal PUCON                     Allocated to registers ;size:1
                                           ;@Led_mode_deal INTE                      Allocated to registers ;size:1
                                           ;@Led_mode_deal INTF                      Allocated to registers ;size:1
                                           ;@Led_mode_deal T0CR                      Allocated to registers ;size:1
                                           ;@Led_mode_deal DDR1                      Allocated to registers ;size:1
                                           ;@Led_mode_deal TMRCR                     Allocated to registers ;size:1
                                           ;@Led_mode_deal T1CR                      Allocated to registers ;size:1
                                           ;@Led_mode_deal T1CNT                     Allocated to registers ;size:1
                                           ;@Led_mode_deal T1LOAD                    Allocated to registers ;size:1
                                           ;@Led_mode_deal T1DATA                    Allocated to registers ;size:1
                                           ;@end Allocation info for local variables in function 'Led_mode_deal';
                                           
                                           ;--------------------------------------------------------
                                           ; overlayable items in internal ram 
                                           ;--------------------------------------------------------
                                           ;	udata_ovr
                                           ;--------------------------------------------------------
                                           ; code
                                           ;--------------------------------------------------------
                                           code_Init	code
                                           ;***
                                           ;  pBlock Stats: dbName = C
                                           ;***
                                           ;entry:  _Led_mode_deal	;Function start
                                           ; 2 exit points
                                           ;has an exit
                                           ;1 compiler assigned register :
                                           ;   r0x1005
                                           ;; Starting pCode block
                                           _Led_mode_deal	;Function start
                                           ; 2 exit points
                                           ;	.line	9; "Init.c"	if( IR_LED_ON_F )
0000ac   0b00     movai   0                	MOVAI	0x00
0000ad   1728     orar    0x28             	ORAR	_IR_LED_ON_F
0000ae   3503     jbclr   0x3, 0x2         	JBCLR	STATUS,2
0000af   28e9     goto    0xe9             	GOTO	_00125_DS_
                                           ;	.line	11; "Init.c"	if(  short_mode_init_F == 1 )  // ON_F  short_mode_init_F = 1  long_mode_init_F
0000b0   1629     movar   0x29             	MOVAR	_short_mode_init_F
0000b1   0801     xorai   0x1              	XORAI	0x01
0000b2   3103     jbset   0x3, 0x2         	JBSET	STATUS,2
0000b3   28e9     goto    0xe9             	GOTO	_00125_DS_
                                           ;	.line	13; "Init.c"	short_mode_init_F =0;
0000b4   1da9     clrr    0x29             	CLRR	_short_mode_init_F
                                           ;;unsigned compare: left < lit(0x3E=62), size=1
                                           ;	.line	15; "Init.c"	if( led_mode >= Color_mode_Max + RTC_mode_Max + MIC_mode_Max + 1  + 1 )// fangwei xianzhi
0000b5   0b3e     movai   0x3e             	MOVAI	0x3e
0000b6   1231     rsubar  0x31             	RSUBAR	_led_mode
0000b7   3003     jbset   0x3, 0           	JBSET	STATUS,0
0000b8   28bc     goto    0xbc             	GOTO	_00117_DS_
                                           ;;genSkipc:3291: created from rifx:00285F1C
                                           ;	.line	17; "Init.c"	led_mode = 1;
0000b9   0b01     movai   0x1              	MOVAI	0x01
0000ba   15b1     movra   0x31             	MOVRA	_led_mode
0000bb   28e3     goto    0xe3             	GOTO	_00118_DS_
                                           ;;unsigned compare: left < lit(0x3D=61), size=1
                                           _00117_DS_
                                           ;	.line	19; "Init.c"	else if( led_mode >= Color_mode_Max + RTC_mode_Max + MIC_mode_Max + 1 )// auto_mode
0000bc   0b3d     movai   0x3d             	MOVAI	0x3d
0000bd   1231     rsubar  0x31             	RSUBAR	_led_mode
0000be   3003     jbset   0x3, 0           	JBSET	STATUS,0
0000bf   28c8     goto    0xc8             	GOTO	_00114_DS_
                                           ;;genSkipc:3291: created from rifx:00285F1C
                                           ;	.line	21; "Init.c"	RTC_mode++;// = 1;//led_mode - Color_mode_RGB_Max;
0000c0   19b3     incr    0x33             	INCR	_RTC_mode
                                           ;;unsigned compare: left < lit(0x9=9), size=1
                                           ;	.line	22; "Init.c"	if( RTC_mode >= RTC_mode_Max + 1)
0000c1   0b09     movai   0x9              	MOVAI	0x09
0000c2   1233     rsubar  0x33             	RSUBAR	_RTC_mode
0000c3   3003     jbset   0x3, 0           	JBSET	STATUS,0
0000c4   28e3     goto    0xe3             	GOTO	_00118_DS_
                                           ;;genSkipc:3291: created from rifx:00285F1C
                                           ;	.line	23; "Init.c"	RTC_mode = 1;
0000c5   0b01     movai   0x1              	MOVAI	0x01
0000c6   15b3     movra   0x33             	MOVRA	_RTC_mode
0000c7   28e3     goto    0xe3             	GOTO	_00118_DS_
                                           ;;unsigned compare: left < lit(0x3A=58), size=1
                                           _00114_DS_
                                           ;	.line	25; "Init.c"	else if( led_mode >= Color_mode_Max + RTC_mode_Max + 0 + 1 )// music_mode
0000c8   0b3a     movai   0x3a             	MOVAI	0x3a
0000c9   1231     rsubar  0x31             	RSUBAR	_led_mode
0000ca   3003     jbset   0x3, 0           	JBSET	STATUS,0
0000cb   28d4     goto    0xd4             	GOTO	_00111_DS_
                                           ;;genSkipc:3291: created from rifx:00285F1C
                                           ;	.line	27; "Init.c"	RTC_mode      = led_mode - Color_mode_Max;
0000cc   1631     movar   0x31             	MOVAR	_led_mode
0000cd   15aa     movra   0x2a             	MOVRA	r0x1005
0000ce   0bcf     movai   0xcf             	MOVAI	0xcf
0000cf   1f2a     addar   0x2a             	ADDAR	r0x1005
0000d0   15b3     movra   0x33             	MOVRA	_RTC_mode
                                           ;	.line	28; "Init.c"	Color_mode = 1;
0000d1   0b01     movai   0x1              	MOVAI	0x01
0000d2   15b2     movra   0x32             	MOVRA	_Color_mode
0000d3   28e3     goto    0xe3             	GOTO	_00118_DS_
                                           ;;unsigned compare: left < lit(0x32=50), size=1
                                           _00111_DS_
                                           ;	.line	30; "Init.c"	else if( led_mode >= Color_mode_Max + 0 + 0 + 1 )// RTC_mode
0000d4   0b32     movai   0x32             	MOVAI	0x32
0000d5   1231     rsubar  0x31             	RSUBAR	_led_mode
0000d6   3003     jbset   0x3, 0           	JBSET	STATUS,0
0000d7   28e0     goto    0xe0             	GOTO	_00108_DS_
                                           ;;genSkipc:3291: created from rifx:00285F1C
                                           ;	.line	32; "Init.c"	RTC_mode      = led_mode - Color_mode_Max;
0000d8   1631     movar   0x31             	MOVAR	_led_mode
0000d9   15aa     movra   0x2a             	MOVRA	r0x1005
0000da   0bcf     movai   0xcf             	MOVAI	0xcf
0000db   1f2a     addar   0x2a             	ADDAR	r0x1005
0000dc   15b3     movra   0x33             	MOVRA	_RTC_mode
                                           ;	.line	33; "Init.c"	Color_mode = 1;
0000dd   0b01     movai   0x1              	MOVAI	0x01
0000de   15b2     movra   0x32             	MOVRA	_Color_mode
0000df   28e3     goto    0xe3             	GOTO	_00118_DS_
                                           _00108_DS_
                                           ;	.line	39; "Init.c"	RTC_mode      = 0;
0000e0   1db3     clrr    0x33             	CLRR	_RTC_mode
                                           ;	.line	40; "Init.c"	Color_mode = led_mode;
0000e1   1631     movar   0x31             	MOVAR	_led_mode
0000e2   15b2     movra   0x32             	MOVRA	_Color_mode
                                           _00118_DS_
                                           ;	.line	43; "Init.c"	if( RTC_mode == 6 )  //  short_mode_init_F == 1 &&   IR_level_add_F IR_speed_add_F  IR_level_sub_F  IR_speed_sub_F
0000e3   1633     movar   0x33             	MOVAR	_RTC_mode
0000e4   0806     xorai   0x6              	XORAI	0x06
0000e5   3103     jbset   0x3, 0x2         	JBSET	STATUS,2
0000e6   28e9     goto    0xe9             	GOTO	_00125_DS_
                                           ;	.line	45; "Init.c"	Color_mode = Color_mode_RGB_Max;
0000e7   0b31     movai   0x31             	MOVAI	0x31
0000e8   15b2     movra   0x32             	MOVRA	_Color_mode
                                           _00125_DS_
                                           ;	.line	50; "Init.c"	}
0000e9   000c     return                   	RETURN	
                                           ; exit point of _Led_mode_deal
                                           
                                           
                                           ;	code size estimation:
                                           ;	   62+    0 =    62 instructions (  124 byte)
                                           
                                           	end
                                           ;--------------------------------------------------------
                                           ; File Created by SN-SDCC : SinoMCU ANSI-C Compiler
                                           ; Version 2.0.0 (Dec 11 2019) (MINGW32)
                                           ; This file was generated Sat Mar 09 11:29:05 2024
                                           ;--------------------------------------------------------
                                           ; MC30 port for the RISC core
                                           ;--------------------------------------------------------
                                           ;	.file	"key.c"
                                           	list	p=1K6280
                                           	radix dec
                                           	include "1K6280.inc"
                                           		LIST
                                           ;mc30p6280.inc    Standard Header File, Version 1.00 by Sinomcu
                                           		NOLIST
                                           ;--------------------------------------------------------
                                           ; external declarations
                                           ;--------------------------------------------------------
                                           	extern	_time_50us_tick_function
                                           	extern	_time_deal
                                           	extern	_Led_mode_deal
                                           	extern	_send_three_byte
                                           	extern	_send_one_byte
                                           	extern	_send_000
                                           	extern	_send_all_byte
                                           	extern	_RTC_mode_6_qicailiushui_012345_543210_time_deal
                                           	extern	_RGB_color_deal
                                           	extern	_led_color_deal
                                           	extern	_PWM_Init
                                           	extern	_INDFbits
                                           	extern	_T0CNTbits
                                           	extern	_PCLbits
                                           	extern	_STATUSbits
                                           	extern	_FSRbits
                                           	extern	_P1bits
                                           	extern	_MCRbits
                                           	extern	_P1KBCRbits
                                           	extern	_PCLATHbits
                                           	extern	_PDCONbits
                                           	extern	_ODCONbits
                                           	extern	_PUCONbits
                                           	extern	_INTEbits
                                           	extern	_INTFbits
                                           	extern	_T0CRbits
                                           	extern	_DDR1bits
                                           	extern	_TMRCRbits
                                           	extern	_T1CRbits
                                           	extern	_T1CNTbits
                                           	extern	_T1LOADbits
                                           	extern	_T1DATAbits
                                           	extern	_time_50us_tick
                                           	extern	_time_1ms_tick
                                           	extern	_time_10ms_tick
                                           	extern	_Led_time_1ms_tick
                                           	extern	_IR_LED_ON_F
                                           	extern	_short_mode_init_F
                                           	extern	_led_level_temp
                                           	extern	_led_num
                                           	extern	_send_count
                                           	extern	_Time_Count
                                           	extern	_flag1
                                           	extern	_LED_R_PWM_expect
                                           	extern	_LED_G_PWM_expect
                                           	extern	_LED_B_PWM_expect
                                           	extern	_led_level_1_16
                                           	extern	_RTC_mode
                                           	extern	_RTC_led_level
                                           	extern	_Color_mode
                                           	extern	_led_mode
                                           	extern	_led_level
                                           	extern	_led_speed
                                           	extern	_temp_byte_value
                                           	extern	_HC_R_LED_Color_LEVEL_TABLE
                                           	extern	_HC_G_LED_Color_LEVEL_TABLE
                                           	extern	_HC_B_LED_Color_LEVEL_TABLE
                                           	extern	_INDF
                                           	extern	_T0CNT
                                           	extern	_PCL
                                           	extern	_STATUS
                                           	extern	_FSR
                                           	extern	_P1
                                           	extern	_MCR
                                           	extern	_P1KBCR
                                           	extern	_PCLATH
                                           	extern	_PDCON
                                           	extern	_ODCON
                                           	extern	_PUCON
                                           	extern	_INTE
                                           	extern	_INTF
                                           	extern	_T0CR
                                           	extern	_DDR1
                                           	extern	_TMRCR
                                           	extern	_T1CR
                                           	extern	_T1CNT
                                           	extern	_T1LOAD
                                           	extern	_T1DATA
                                           
                                           	extern STK06
                                           	extern STK05
                                           	extern STK04
                                           	extern STK03
                                           	extern STK02
                                           	extern STK01
                                           	extern STK00
                                           ;--------------------------------------------------------
                                           ; global declarations
                                           ;--------------------------------------------------------
                                           	global	_LED_duty
                                           	global	_key_1_tick
                                           	global	_KEY_long_time_F
                                           
                                           ;--------------------------------------------------------
                                           ; global definitions
                                           ;--------------------------------------------------------
                                           UD_key_0	udata
                                           _LED_duty	res	1
                                           
                                           UD_key_1	udata
                                           _key_1_tick	res	1
                                           
                                           UD_key_2	udata
                                           _KEY_long_time_F	res	1
                                           
                                           ;--------------------------------------------------------
                                           ; absolute symbol definitions
                                           ;--------------------------------------------------------
                                           ;--------------------------------------------------------
                                           ; compiler-defined variables
                                           ;--------------------------------------------------------
                                           ;--------------------------------------------------------
                                           ; initialized data
                                           ;--------------------------------------------------------
                                           ;--------------------------------------------------------
                                           ; overlayable items in internal ram 
                                           ;--------------------------------------------------------
                                           ;	udata_ovr
                                           ;--------------------------------------------------------
                                           ; code
                                           ;--------------------------------------------------------
                                           code_key	code
                                           
                                           ;	code size estimation:
                                           ;	    0+    0 =     0 instructions (    0 byte)
                                           
                                           	end
                                           ;--------------------------------------------------------
                                           ; File Created by SN-SDCC : SinoMCU ANSI-C Compiler
                                           ; Version 2.0.0 (Dec 11 2019) (MINGW32)
                                           ; This file was generated Sat Mar 09 11:29:06 2024
                                           ;--------------------------------------------------------
                                           ; MC30 port for the RISC core
                                           ;--------------------------------------------------------
                                           ;	.file	"RGB_Color.c"
                                           	list	p=1K6280
                                           	radix dec
                                           	include "1K6280.inc"
                                           		LIST
                                           ;mc30p6280.inc    Standard Header File, Version 1.00 by Sinomcu
                                           		NOLIST
                                           ;--------------------------------------------------------
                                           ; external declarations
                                           ;--------------------------------------------------------
                                           	extern	_time_50us_tick_function
                                           	extern	_time_deal
                                           	extern	_Led_mode_deal
                                           	extern	_send_three_byte
                                           	extern	_send_one_byte
                                           	extern	_send_000
                                           	extern	_send_all_byte
                                           	extern	_RTC_mode_6_qicailiushui_012345_543210_time_deal
                                           	extern	_INDFbits
                                           	extern	_T0CNTbits
                                           	extern	_PCLbits
                                           	extern	_STATUSbits
                                           	extern	_FSRbits
                                           	extern	_P1bits
                                           	extern	_MCRbits
                                           	extern	_P1KBCRbits
                                           	extern	_PCLATHbits
                                           	extern	_PDCONbits
                                           	extern	_ODCONbits
                                           	extern	_PUCONbits
                                           	extern	_INTEbits
                                           	extern	_INTFbits
                                           	extern	_T0CRbits
                                           	extern	_DDR1bits
                                           	extern	_TMRCRbits
                                           	extern	_T1CRbits
                                           	extern	_T1CNTbits
                                           	extern	_T1LOADbits
                                           	extern	_T1DATAbits
                                           	extern	_time_50us_tick
                                           	extern	_time_1ms_tick
                                           	extern	_time_10ms_tick
                                           	extern	_Led_time_1ms_tick
                                           	extern	_IR_LED_ON_F
                                           	extern	_short_mode_init_F
                                           	extern	_led_level_temp
                                           	extern	_led_num
                                           	extern	_send_count
                                           	extern	_Time_Count
                                           	extern	_flag1
                                           	extern	_LED_duty
                                           	extern	_HC_R_LED_Color_LEVEL_TABLE
                                           	extern	_HC_G_LED_Color_LEVEL_TABLE
                                           	extern	_HC_B_LED_Color_LEVEL_TABLE
                                           	extern	_INDF
                                           	extern	_T0CNT
                                           	extern	_PCL
                                           	extern	_STATUS
                                           	extern	_FSR
                                           	extern	_P1
                                           	extern	_MCR
                                           	extern	_P1KBCR
                                           	extern	_PCLATH
                                           	extern	_PDCON
                                           	extern	_ODCON
                                           	extern	_PUCON
                                           	extern	_INTE
                                           	extern	_INTF
                                           	extern	_T0CR
                                           	extern	_DDR1
                                           	extern	_TMRCR
                                           	extern	_T1CR
                                           	extern	_T1CNT
                                           	extern	_T1LOAD
                                           	extern	_T1DATA
                                           	extern	__gptrget1
                                           
                                           	extern STK06
                                           	extern STK05
                                           	extern STK04
                                           	extern STK03
                                           	extern STK02
                                           	extern STK01
                                           	extern STK00
                                           ;--------------------------------------------------------
                                           ; global declarations
                                           ;--------------------------------------------------------
                                           	global	_led_color_deal
                                           	global	_RGB_color_deal
                                           	global	_LED_PWM_16_LEVEL_TABLE
                                           	global	_LED_R_PWM_expect
                                           	global	_LED_G_PWM_expect
                                           	global	_LED_B_PWM_expect
                                           	global	_led_mode
                                           	global	_Color_mode
                                           	global	_RTC_mode
                                           	global	_led_level
                                           	global	_led_level_1_16
                                           	global	_led_speed
                                           	global	_RTC_led_level
                                           	global	_temp_byte_value
                                           
                                           ;--------------------------------------------------------
                                           ; global definitions
                                           ;--------------------------------------------------------
                                           UD_RGB_Color_0	udata
                                           _LED_R_PWM_expect	res	1
                                           
                                           UD_RGB_Color_1	udata
                                           _LED_G_PWM_expect	res	1
                                           
                                           UD_RGB_Color_2	udata
                                           _LED_B_PWM_expect	res	1
                                           
                                           UD_RGB_Color_3	udata
                                           _led_mode	res	1
                                           
                                           UD_RGB_Color_4	udata
                                           _Color_mode	res	1
                                           
                                           UD_RGB_Color_5	udata
                                           _RTC_mode	res	1
                                           
                                           UD_RGB_Color_6	udata
                                           _led_level	res	1
                                           
                                           UD_RGB_Color_7	udata
                                           _led_level_1_16	res	1
                                           
                                           UD_RGB_Color_8	udata
                                           _led_speed	res	1
                                           
                                           UD_RGB_Color_9	udata
                                           _RTC_led_level	res	1
                                           
                                           UD_RGB_Color_10	udata
                                           _temp_byte_value	res	1
                                           
                                           ;--------------------------------------------------------
                                           ; absolute symbol definitions
                                           ;--------------------------------------------------------
                                           ;--------------------------------------------------------
                                           ; compiler-defined variables
                                           ;--------------------------------------------------------
                                           UDL_RGB_Color_0	udata
                                           r0x1009	res	1
                                           r0x100A	res	1
                                           r0x100B	res	1
                                           ;--------------------------------------------------------
                                           ; initialized data
                                           ;--------------------------------------------------------
                                           
                                           ;@Allocation info for local variables in function 'LED_PWM_16_LEVEL_TABLE'
                                           ;@LED_PWM_16_LEVEL_TABLE time_50us_tick_function   Allocated to registers ;size:2
                                           ;@LED_PWM_16_LEVEL_TABLE time_deal                 Allocated to registers ;size:2
                                           ;@LED_PWM_16_LEVEL_TABLE Led_mode_deal             Allocated to registers ;size:2
                                           ;@LED_PWM_16_LEVEL_TABLE send_three_byte           Allocated to registers ;size:2
                                           ;@LED_PWM_16_LEVEL_TABLE send_one_byte             Allocated to registers ;size:2
                                           ;@LED_PWM_16_LEVEL_TABLE send_000                  Allocated to registers ;size:2
                                           ;@LED_PWM_16_LEVEL_TABLE send_all_byte             Allocated to registers ;size:2
                                           ;@LED_PWM_16_LEVEL_TABLE RTC_mode_6_qicailiushui_012345_543210_time_deal Allocated to registers ;size:2
                                           ;@LED_PWM_16_LEVEL_TABLE RGB_color_deal            Allocated to registers ;size:2
                                           ;@LED_PWM_16_LEVEL_TABLE led_color_deal            Allocated to registers ;size:2
                                           ;@LED_PWM_16_LEVEL_TABLE INDFbits                  Allocated to registers ;size:1
                                           ;@LED_PWM_16_LEVEL_TABLE T0CNTbits                 Allocated to registers ;size:1
                                           ;@LED_PWM_16_LEVEL_TABLE PCLbits                   Allocated to registers ;size:1
                                           ;@LED_PWM_16_LEVEL_TABLE STATUSbits                Allocated to registers ;size:1
                                           ;@LED_PWM_16_LEVEL_TABLE FSRbits                   Allocated to registers ;size:1
                                           ;@LED_PWM_16_LEVEL_TABLE P1bits                    Allocated to registers ;size:1
                                           ;@LED_PWM_16_LEVEL_TABLE MCRbits                   Allocated to registers ;size:1
                                           ;@LED_PWM_16_LEVEL_TABLE P1KBCRbits                Allocated to registers ;size:1
                                           ;@LED_PWM_16_LEVEL_TABLE PCLATHbits                Allocated to registers ;size:1
                                           ;@LED_PWM_16_LEVEL_TABLE PDCONbits                 Allocated to registers ;size:1
                                           ;@LED_PWM_16_LEVEL_TABLE ODCONbits                 Allocated to registers ;size:1
                                           ;@LED_PWM_16_LEVEL_TABLE PUCONbits                 Allocated to registers ;size:1
                                           ;@LED_PWM_16_LEVEL_TABLE INTEbits                  Allocated to registers ;size:1
                                           ;@LED_PWM_16_LEVEL_TABLE INTFbits                  Allocated to registers ;size:1
                                           ;@LED_PWM_16_LEVEL_TABLE T0CRbits                  Allocated to registers ;size:1
                                           ;@LED_PWM_16_LEVEL_TABLE DDR1bits                  Allocated to registers ;size:1
                                           ;@LED_PWM_16_LEVEL_TABLE TMRCRbits                 Allocated to registers ;size:1
                                           ;@LED_PWM_16_LEVEL_TABLE T1CRbits                  Allocated to registers ;size:1
                                           ;@LED_PWM_16_LEVEL_TABLE T1CNTbits                 Allocated to registers ;size:1
                                           ;@LED_PWM_16_LEVEL_TABLE T1LOADbits                Allocated to registers ;size:1
                                           ;@LED_PWM_16_LEVEL_TABLE T1DATAbits                Allocated to registers ;size:1
                                           ;@LED_PWM_16_LEVEL_TABLE time_50us_tick            Allocated to registers ;size:1
                                           ;@LED_PWM_16_LEVEL_TABLE time_1ms_tick             Allocated to registers ;size:1
                                           ;@LED_PWM_16_LEVEL_TABLE time_10ms_tick            Allocated to registers ;size:1
                                           ;@LED_PWM_16_LEVEL_TABLE Led_time_1ms_tick         Allocated to registers ;size:1
                                           ;@LED_PWM_16_LEVEL_TABLE IR_LED_ON_F               Allocated to registers ;size:1
                                           ;@LED_PWM_16_LEVEL_TABLE short_mode_init_F         Allocated to registers ;size:1
                                           ;@LED_PWM_16_LEVEL_TABLE led_level_temp            Allocated to registers ;size:1
                                           ;@LED_PWM_16_LEVEL_TABLE led_num                   Allocated to registers ;size:1
                                           ;@LED_PWM_16_LEVEL_TABLE send_count                Allocated to registers ;size:1
                                           ;@LED_PWM_16_LEVEL_TABLE Time_Count                Allocated to registers ;size:1
                                           ;@LED_PWM_16_LEVEL_TABLE flag1                     Allocated to registers ;size:1
                                           ;@LED_PWM_16_LEVEL_TABLE LED_duty                  Allocated to registers ;size:1
                                           ;@LED_PWM_16_LEVEL_TABLE LED_R_PWM_expect          Allocated to registers ;size:1
                                           ;@LED_PWM_16_LEVEL_TABLE LED_G_PWM_expect          Allocated to registers ;size:1
                                           ;@LED_PWM_16_LEVEL_TABLE LED_B_PWM_expect          Allocated to registers ;size:1
                                           ;@LED_PWM_16_LEVEL_TABLE led_mode                  Allocated to registers ;size:1
                                           ;@LED_PWM_16_LEVEL_TABLE Color_mode                Allocated to registers ;size:1
                                           ;@LED_PWM_16_LEVEL_TABLE RTC_mode                  Allocated to registers ;size:1
                                           ;@LED_PWM_16_LEVEL_TABLE led_level                 Allocated to registers ;size:1
                                           ;@LED_PWM_16_LEVEL_TABLE led_level_1_16            Allocated to registers ;size:1
                                           ;@LED_PWM_16_LEVEL_TABLE led_speed                 Allocated to registers ;size:1
                                           ;@LED_PWM_16_LEVEL_TABLE RTC_led_level             Allocated to registers ;size:1
                                           ;@LED_PWM_16_LEVEL_TABLE temp_byte_value           Allocated to registers ;size:1
                                           ;@LED_PWM_16_LEVEL_TABLE INDF                      Allocated to registers ;size:1
                                           ;@LED_PWM_16_LEVEL_TABLE T0CNT                     Allocated to registers ;size:1
                                           ;@LED_PWM_16_LEVEL_TABLE PCL                       Allocated to registers ;size:1
                                           ;@LED_PWM_16_LEVEL_TABLE STATUS                    Allocated to registers ;size:1
                                           ;@LED_PWM_16_LEVEL_TABLE FSR                       Allocated to registers ;size:1
                                           ;@LED_PWM_16_LEVEL_TABLE P1                        Allocated to registers ;size:1
                                           ;@LED_PWM_16_LEVEL_TABLE MCR                       Allocated to registers ;size:1
                                           ;@LED_PWM_16_LEVEL_TABLE P1KBCR                    Allocated to registers ;size:1
                                           ;@LED_PWM_16_LEVEL_TABLE PCLATH                    Allocated to registers ;size:1
                                           ;@LED_PWM_16_LEVEL_TABLE PDCON                     Allocated to registers ;size:1
                                           ;@LED_PWM_16_LEVEL_TABLE ODCON                     Allocated to registers ;size:1
                                           ;@LED_PWM_16_LEVEL_TABLE PUCON                     Allocated to registers ;size:1
                                           ;@LED_PWM_16_LEVEL_TABLE INTE                      Allocated to registers ;size:1
                                           ;@LED_PWM_16_LEVEL_TABLE INTF                      Allocated to registers ;size:1
                                           ;@LED_PWM_16_LEVEL_TABLE T0CR                      Allocated to registers ;size:1
                                           ;@LED_PWM_16_LEVEL_TABLE DDR1                      Allocated to registers ;size:1
                                           ;@LED_PWM_16_LEVEL_TABLE TMRCR                     Allocated to registers ;size:1
                                           ;@LED_PWM_16_LEVEL_TABLE T1CR                      Allocated to registers ;size:1
                                           ;@LED_PWM_16_LEVEL_TABLE T1CNT                     Allocated to registers ;size:1
                                           ;@LED_PWM_16_LEVEL_TABLE T1LOAD                    Allocated to registers ;size:1
                                           ;@LED_PWM_16_LEVEL_TABLE T1DATA                    Allocated to registers ;size:1
                                           ;@end Allocation info for local variables in function 'LED_PWM_16_LEVEL_TABLE';
                                           ;@Allocation info for local variables in function 'RGB_color_deal'
                                           ;@end Allocation info for local variables in function 'RGB_color_deal';
                                           ;@Allocation info for local variables in function 'led_color_deal'
                                           ;@end Allocation info for local variables in function 'led_color_deal';
                                           
                                           ;--------------------------------------------------------
                                           ; overlayable items in internal ram 
                                           ;--------------------------------------------------------
                                           ;	udata_ovr
                                           ;--------------------------------------------------------
                                           ; code
                                           ;--------------------------------------------------------
                                           code_RGB_Color	code
                                           ;***
                                           ;  pBlock Stats: dbName = C
                                           ;***
                                           ;entry:  _led_color_deal	;Function start
                                           ; 2 exit points
                                           ;has an exit
                                           ;; Starting pCode block
                                           _led_color_deal	;Function start
                                           ; 2 exit points
                                           ;	.line	72; "RGB_Color.c"	}
000022   000c     return                   	RETURN	
                                           ; exit point of _led_color_deal
                                           
                                           ;***
                                           ;  pBlock Stats: dbName = C
                                           ;***
                                           ;entry:  _RGB_color_deal	;Function start
                                           ; 2 exit points
                                           ;has an exit
                                           ;functions called:
                                           ;   __gptrget1
                                           ;   _LED_PWM_16_LEVEL_TABLE
                                           ;   __gptrget1
                                           ;   _LED_PWM_16_LEVEL_TABLE
                                           ;   __gptrget1
                                           ;   _LED_PWM_16_LEVEL_TABLE
                                           ;   __gptrget1
                                           ;   _LED_PWM_16_LEVEL_TABLE
                                           ;   __gptrget1
                                           ;   _LED_PWM_16_LEVEL_TABLE
                                           ;   __gptrget1
                                           ;   _LED_PWM_16_LEVEL_TABLE
                                           ;4 compiler assigned registers:
                                           ;   r0x100A
                                           ;   r0x100B
                                           ;   STK01
                                           ;   STK00
                                           ;; Starting pCode block
                                           _RGB_color_deal	;Function start
                                           ; 2 exit points
                                           ;	.line	42; "RGB_Color.c"	RTC_led_level = led_level;
000023   1634     movar   0x34             	MOVAR	_led_level
000024   15b7     movra   0x37             	MOVRA	_RTC_led_level
                                           ;	.line	43; "RGB_Color.c"	led_level_1_16 = ( ( RTC_led_level ) >> 4 ); // + 8 led_level_255_1
000025   1137     swapar  0x37             	SWAPAR	_RTC_led_level
000026   0d0f     andai   0xf              	ANDAI	0x0f
000027   15b5     movra   0x35             	MOVRA	_led_level_1_16
                                           ;	.line	45; "RGB_Color.c"	temp_byte_value = HC_R_LED_Color_LEVEL_TABLE[Color_mode] ;
000028   1632     movar   0x32             	MOVAR	_Color_mode
000029   0e1c     addai   0x1c             	ADDAI	(_HC_R_LED_Color_LEVEL_TABLE + 0)
00002a   159c     movra   0x1c             	MOVRA	r0x100A
00002b   0b01     movai   0x1              	MOVAI	high (_HC_R_LED_Color_LEVEL_TABLE + 0)
00002c   3403     jbclr   0x3, 0           	JBCLR	STATUS,0
00002d   0e01     addai   0x1              	ADDAI	0x01
00002e   159d     movra   0x1d             	MOVRA	r0x100B
00002f   161c     movar   0x1c             	MOVAR	r0x100A
000030   1595     movra   0x15             	MOVRA	STK01
000031   161d     movar   0x1d             	MOVAR	r0x100B
000032   1596     movra   0x16             	MOVRA	STK00
000033   0b80     movai   0x80             	MOVAI	0x80
000034   21fb     call    0x1fb            	CALL	__gptrget1
000035   15b8     movra   0x38             	MOVRA	_temp_byte_value
                                           ;	.line	46; "RGB_Color.c"	LED_PWM_16_LEVEL_TABLE();
000036   205c     call    0x5c             	CALL	_LED_PWM_16_LEVEL_TABLE
                                           ;	.line	47; "RGB_Color.c"	LED_R_PWM_expect = led_level_temp;
000037   1627     movar   0x27             	MOVAR	_led_level_temp
000038   15ae     movra   0x2e             	MOVRA	_LED_R_PWM_expect
                                           ;	.line	50; "RGB_Color.c"	temp_byte_value = HC_G_LED_Color_LEVEL_TABLE[Color_mode] ;
000039   1632     movar   0x32             	MOVAR	_Color_mode
00003a   0e4e     addai   0x4e             	ADDAI	(_HC_G_LED_Color_LEVEL_TABLE + 0)
00003b   159c     movra   0x1c             	MOVRA	r0x100A
00003c   0b01     movai   0x1              	MOVAI	high (_HC_G_LED_Color_LEVEL_TABLE + 0)
00003d   3403     jbclr   0x3, 0           	JBCLR	STATUS,0
00003e   0e01     addai   0x1              	ADDAI	0x01
00003f   159d     movra   0x1d             	MOVRA	r0x100B
000040   161c     movar   0x1c             	MOVAR	r0x100A
000041   1595     movra   0x15             	MOVRA	STK01
000042   161d     movar   0x1d             	MOVAR	r0x100B
000043   1596     movra   0x16             	MOVRA	STK00
000044   0b80     movai   0x80             	MOVAI	0x80
000045   21fb     call    0x1fb            	CALL	__gptrget1
000046   15b8     movra   0x38             	MOVRA	_temp_byte_value
                                           ;	.line	51; "RGB_Color.c"	LED_PWM_16_LEVEL_TABLE();
000047   205c     call    0x5c             	CALL	_LED_PWM_16_LEVEL_TABLE
                                           ;	.line	52; "RGB_Color.c"	LED_G_PWM_expect = led_level_temp;
000048   1627     movar   0x27             	MOVAR	_led_level_temp
000049   15af     movra   0x2f             	MOVRA	_LED_G_PWM_expect
                                           ;	.line	55; "RGB_Color.c"	temp_byte_value = HC_B_LED_Color_LEVEL_TABLE[Color_mode] ;
00004a   1632     movar   0x32             	MOVAR	_Color_mode
00004b   0e80     addai   0x80             	ADDAI	(_HC_B_LED_Color_LEVEL_TABLE + 0)
00004c   159c     movra   0x1c             	MOVRA	r0x100A
00004d   0b01     movai   0x1              	MOVAI	high (_HC_B_LED_Color_LEVEL_TABLE + 0)
00004e   3403     jbclr   0x3, 0           	JBCLR	STATUS,0
00004f   0e01     addai   0x1              	ADDAI	0x01
000050   159d     movra   0x1d             	MOVRA	r0x100B
000051   161c     movar   0x1c             	MOVAR	r0x100A
000052   1595     movra   0x15             	MOVRA	STK01
000053   161d     movar   0x1d             	MOVAR	r0x100B
000054   1596     movra   0x16             	MOVRA	STK00
000055   0b80     movai   0x80             	MOVAI	0x80
000056   21fb     call    0x1fb            	CALL	__gptrget1
000057   15b8     movra   0x38             	MOVRA	_temp_byte_value
                                           ;	.line	56; "RGB_Color.c"	LED_PWM_16_LEVEL_TABLE();
000058   205c     call    0x5c             	CALL	_LED_PWM_16_LEVEL_TABLE
                                           ;	.line	57; "RGB_Color.c"	LED_B_PWM_expect = led_level_temp;
000059   1627     movar   0x27             	MOVAR	_led_level_temp
00005a   15b0     movra   0x30             	MOVRA	_LED_B_PWM_expect
                                           ;	.line	67; "RGB_Color.c"	}
00005b   000c     return                   	RETURN	
                                           ; exit point of _RGB_color_deal
                                           
                                           ;***
                                           ;  pBlock Stats: dbName = C
                                           ;***
                                           ;entry:  _LED_PWM_16_LEVEL_TABLE	;Function start
                                           ; 2 exit points
                                           ;has an exit
                                           ;1 compiler assigned register :
                                           ;   r0x1009
                                           ;; Starting pCode block
                                           _LED_PWM_16_LEVEL_TABLE	;Function start
                                           ; 2 exit points
                                           ;	.line	32; "RGB_Color.c"	led_level_temp = 0;
00005c   1da7     clrr    0x27             	CLRR	_led_level_temp
                                           _00105_DS_
                                           ;	.line	33; "RGB_Color.c"	while( temp_byte_value -- )
00005d   1638     movar   0x38             	MOVAR	_temp_byte_value
00005e   159b     movra   0x1b             	MOVRA	r0x1009
00005f   1bb8     decr    0x38             	DECR	_temp_byte_value
000060   0b00     movai   0                	MOVAI	0x00
000061   171b     orar    0x1b             	ORAR	r0x1009
000062   3503     jbclr   0x3, 0x2         	JBCLR	STATUS,2
000063   2867     goto    0x67             	GOTO	_00108_DS_
                                           ;	.line	35; "RGB_Color.c"	led_level_temp +=led_level_1_16;
000064   1635     movar   0x35             	MOVAR	_led_level_1_16
000065   1fa7     addra   0x27             	ADDRA	_led_level_temp
000066   285d     goto    0x5d             	GOTO	_00105_DS_
                                           _00108_DS_
                                           ;	.line	37; "RGB_Color.c"	}
000067   000c     return                   	RETURN	
                                           ; exit point of _LED_PWM_16_LEVEL_TABLE
                                           
                                           
                                           ;	code size estimation:
                                           ;	   70+    0 =    70 instructions (  140 byte)
                                           
                                           	end
                                           ;--------------------------------------------------------
                                           ; File Created by SN-SDCC : SinoMCU ANSI-C Compiler
                                           ; Version 2.0.0 (Dec 11 2019) (MINGW32)
                                           ; This file was generated Sat Mar 09 11:29:06 2024
                                           ;--------------------------------------------------------
                                           ; MC30 port for the RISC core
                                           ;--------------------------------------------------------
                                           ;	.file	"time_task.c"
                                           	list	p=1K6280
                                           	radix dec
                                           	include "1K6280.inc"
                                           		LIST
                                           ;mc30p6280.inc    Standard Header File, Version 1.00 by Sinomcu
                                           		NOLIST
                                           ;--------------------------------------------------------
                                           ; external declarations
                                           ;--------------------------------------------------------
                                           	extern	_time_deal
                                           	extern	_Led_mode_deal
                                           	extern	_send_three_byte
                                           	extern	_send_one_byte
                                           	extern	_send_000
                                           	extern	_send_all_byte
                                           	extern	_RTC_mode_6_qicailiushui_012345_543210_time_deal
                                           	extern	_RGB_color_deal
                                           	extern	_led_color_deal
                                           	extern	_INDFbits
                                           	extern	_T0CNTbits
                                           	extern	_PCLbits
                                           	extern	_STATUSbits
                                           	extern	_FSRbits
                                           	extern	_P1bits
                                           	extern	_MCRbits
                                           	extern	_P1KBCRbits
                                           	extern	_PCLATHbits
                                           	extern	_PDCONbits
                                           	extern	_ODCONbits
                                           	extern	_PUCONbits
                                           	extern	_INTEbits
                                           	extern	_INTFbits
                                           	extern	_T0CRbits
                                           	extern	_DDR1bits
                                           	extern	_TMRCRbits
                                           	extern	_T1CRbits
                                           	extern	_T1CNTbits
                                           	extern	_T1LOADbits
                                           	extern	_T1DATAbits
                                           	extern	_IR_LED_ON_F
                                           	extern	_short_mode_init_F
                                           	extern	_led_level_temp
                                           	extern	_led_num
                                           	extern	_send_count
                                           	extern	_Time_Count
                                           	extern	_flag1
                                           	extern	_LED_R_PWM_expect
                                           	extern	_LED_G_PWM_expect
                                           	extern	_LED_B_PWM_expect
                                           	extern	_led_level_1_16
                                           	extern	_RTC_mode
                                           	extern	_RTC_led_level
                                           	extern	_Color_mode
                                           	extern	_led_mode
                                           	extern	_led_level
                                           	extern	_led_speed
                                           	extern	_temp_byte_value
                                           	extern	_LED_duty
                                           	extern	_HC_R_LED_Color_LEVEL_TABLE
                                           	extern	_HC_G_LED_Color_LEVEL_TABLE
                                           	extern	_HC_B_LED_Color_LEVEL_TABLE
                                           	extern	_INDF
                                           	extern	_T0CNT
                                           	extern	_PCL
                                           	extern	_STATUS
                                           	extern	_FSR
                                           	extern	_P1
                                           	extern	_MCR
                                           	extern	_P1KBCR
                                           	extern	_PCLATH
                                           	extern	_PDCON
                                           	extern	_ODCON
                                           	extern	_PUCON
                                           	extern	_INTE
                                           	extern	_INTF
                                           	extern	_T0CR
                                           	extern	_DDR1
                                           	extern	_TMRCR
                                           	extern	_T1CR
                                           	extern	_T1CNT
                                           	extern	_T1LOAD
                                           	extern	_T1DATA
                                           
                                           	extern STK06
                                           	extern STK05
                                           	extern STK04
                                           	extern STK03
                                           	extern STK02
                                           	extern STK01
                                           	extern STK00
                                           ;--------------------------------------------------------
                                           ; global declarations
                                           ;--------------------------------------------------------
                                           	global	_time_50us_tick_function
                                           	global	_time_50us_tick
                                           	global	_time_1ms_tick
                                           	global	_time_10ms_tick
                                           	global	_time_100ms_tick
                                           	global	_Led_time_1ms_tick
                                           
                                           ;--------------------------------------------------------
                                           ; global definitions
                                           ;--------------------------------------------------------
                                           UD_time_task_0	udata
                                           _time_50us_tick	res	1
                                           
                                           UD_time_task_1	udata
                                           _time_1ms_tick	res	1
                                           
                                           UD_time_task_2	udata
                                           _time_10ms_tick	res	1
                                           
                                           UD_time_task_3	udata
                                           _time_100ms_tick	res	1
                                           
                                           UD_time_task_4	udata
                                           _Led_time_1ms_tick	res	1
                                           
                                           ;--------------------------------------------------------
                                           ; absolute symbol definitions
                                           ;--------------------------------------------------------
                                           ;--------------------------------------------------------
                                           ; compiler-defined variables
                                           ;--------------------------------------------------------
                                           UDL_time_task_0	udata
                                           r0x1007	res	1
                                           ;--------------------------------------------------------
                                           ; initialized data
                                           ;--------------------------------------------------------
                                           
                                           ;@Allocation info for local variables in function 'time_50us_tick_function'
                                           ;@time_50us_tick_function time_deal                 Allocated to registers ;size:2
                                           ;@time_50us_tick_function Led_mode_deal             Allocated to registers ;size:2
                                           ;@time_50us_tick_function send_three_byte           Allocated to registers ;size:2
                                           ;@time_50us_tick_function send_one_byte             Allocated to registers ;size:2
                                           ;@time_50us_tick_function send_000                  Allocated to registers ;size:2
                                           ;@time_50us_tick_function send_all_byte             Allocated to registers ;size:2
                                           ;@time_50us_tick_function RTC_mode_6_qicailiushui_012345_543210_time_deal Allocated to registers ;size:2
                                           ;@time_50us_tick_function RGB_color_deal            Allocated to registers ;size:2
                                           ;@time_50us_tick_function led_color_deal            Allocated to registers ;size:2
                                           ;@time_50us_tick_function INDFbits                  Allocated to registers ;size:1
                                           ;@time_50us_tick_function T0CNTbits                 Allocated to registers ;size:1
                                           ;@time_50us_tick_function PCLbits                   Allocated to registers ;size:1
                                           ;@time_50us_tick_function STATUSbits                Allocated to registers ;size:1
                                           ;@time_50us_tick_function FSRbits                   Allocated to registers ;size:1
                                           ;@time_50us_tick_function P1bits                    Allocated to registers ;size:1
                                           ;@time_50us_tick_function MCRbits                   Allocated to registers ;size:1
                                           ;@time_50us_tick_function P1KBCRbits                Allocated to registers ;size:1
                                           ;@time_50us_tick_function PCLATHbits                Allocated to registers ;size:1
                                           ;@time_50us_tick_function PDCONbits                 Allocated to registers ;size:1
                                           ;@time_50us_tick_function ODCONbits                 Allocated to registers ;size:1
                                           ;@time_50us_tick_function PUCONbits                 Allocated to registers ;size:1
                                           ;@time_50us_tick_function INTEbits                  Allocated to registers ;size:1
                                           ;@time_50us_tick_function INTFbits                  Allocated to registers ;size:1
                                           ;@time_50us_tick_function T0CRbits                  Allocated to registers ;size:1
                                           ;@time_50us_tick_function DDR1bits                  Allocated to registers ;size:1
                                           ;@time_50us_tick_function TMRCRbits                 Allocated to registers ;size:1
                                           ;@time_50us_tick_function T1CRbits                  Allocated to registers ;size:1
                                           ;@time_50us_tick_function T1CNTbits                 Allocated to registers ;size:1
                                           ;@time_50us_tick_function T1LOADbits                Allocated to registers ;size:1
                                           ;@time_50us_tick_function T1DATAbits                Allocated to registers ;size:1
                                           ;@time_50us_tick_function IR_LED_ON_F               Allocated to registers ;size:1
                                           ;@time_50us_tick_function short_mode_init_F         Allocated to registers ;size:1
                                           ;@time_50us_tick_function led_level_temp            Allocated to registers ;size:1
                                           ;@time_50us_tick_function led_num                   Allocated to registers ;size:1
                                           ;@time_50us_tick_function send_count                Allocated to registers ;size:1
                                           ;@time_50us_tick_function Time_Count                Allocated to registers ;size:1
                                           ;@time_50us_tick_function flag1                     Allocated to registers ;size:1
                                           ;@time_50us_tick_function LED_R_PWM_expect          Allocated to registers ;size:1
                                           ;@time_50us_tick_function LED_G_PWM_expect          Allocated to registers ;size:1
                                           ;@time_50us_tick_function LED_B_PWM_expect          Allocated to registers ;size:1
                                           ;@time_50us_tick_function led_level_1_16            Allocated to registers ;size:1
                                           ;@time_50us_tick_function RTC_mode                  Allocated to registers ;size:1
                                           ;@time_50us_tick_function RTC_led_level             Allocated to registers ;size:1
                                           ;@time_50us_tick_function Color_mode                Allocated to registers ;size:1
                                           ;@time_50us_tick_function led_mode                  Allocated to registers ;size:1
                                           ;@time_50us_tick_function led_level                 Allocated to registers ;size:1
                                           ;@time_50us_tick_function led_speed                 Allocated to registers ;size:1
                                           ;@time_50us_tick_function temp_byte_value           Allocated to registers ;size:1
                                           ;@time_50us_tick_function LED_duty                  Allocated to registers ;size:1
                                           ;@time_50us_tick_function time_50us_tick            Allocated to registers ;size:1
                                           ;@time_50us_tick_function time_1ms_tick             Allocated to registers ;size:1
                                           ;@time_50us_tick_function time_10ms_tick            Allocated to registers ;size:1
                                           ;@time_50us_tick_function time_100ms_tick           Allocated to registers ;size:1
                                           ;@time_50us_tick_function Led_time_1ms_tick         Allocated to registers ;size:1
                                           ;@time_50us_tick_function INDF                      Allocated to registers ;size:1
                                           ;@time_50us_tick_function T0CNT                     Allocated to registers ;size:1
                                           ;@time_50us_tick_function PCL                       Allocated to registers ;size:1
                                           ;@time_50us_tick_function STATUS                    Allocated to registers ;size:1
                                           ;@time_50us_tick_function FSR                       Allocated to registers ;size:1
                                           ;@time_50us_tick_function P1                        Allocated to registers ;size:1
                                           ;@time_50us_tick_function MCR                       Allocated to registers ;size:1
                                           ;@time_50us_tick_function P1KBCR                    Allocated to registers ;size:1
                                           ;@time_50us_tick_function PCLATH                    Allocated to registers ;size:1
                                           ;@time_50us_tick_function PDCON                     Allocated to registers ;size:1
                                           ;@time_50us_tick_function ODCON                     Allocated to registers ;size:1
                                           ;@time_50us_tick_function PUCON                     Allocated to registers ;size:1
                                           ;@time_50us_tick_function INTE                      Allocated to registers ;size:1
                                           ;@time_50us_tick_function INTF                      Allocated to registers ;size:1
                                           ;@time_50us_tick_function T0CR                      Allocated to registers ;size:1
                                           ;@time_50us_tick_function DDR1                      Allocated to registers ;size:1
                                           ;@time_50us_tick_function TMRCR                     Allocated to registers ;size:1
                                           ;@time_50us_tick_function T1CR                      Allocated to registers ;size:1
                                           ;@time_50us_tick_function T1CNT                     Allocated to registers ;size:1
                                           ;@time_50us_tick_function T1LOAD                    Allocated to registers ;size:1
                                           ;@time_50us_tick_function T1DATA                    Allocated to registers ;size:1
                                           ;@end Allocation info for local variables in function 'time_50us_tick_function';
                                           
                                           ;--------------------------------------------------------
                                           ; overlayable items in internal ram 
                                           ;--------------------------------------------------------
                                           ;	udata_ovr
                                           ;--------------------------------------------------------
                                           ; code
                                           ;--------------------------------------------------------
                                           code_time_task	code
                                           ;***
                                           ;  pBlock Stats: dbName = C
                                           ;***
                                           ;entry:  _time_50us_tick_function	;Function start
                                           ; 2 exit points
                                           ;has an exit
                                           ;functions called:
                                           ;   _RTC_mode_6_qicailiushui_012345_543210_time_deal
                                           ;   _Led_mode_deal
                                           ;   _RTC_mode_6_qicailiushui_012345_543210_time_deal
                                           ;   _Led_mode_deal
                                           ;1 compiler assigned register :
                                           ;   r0x1007
                                           ;; Starting pCode block
                                           _time_50us_tick_function	;Function start
                                           ; 2 exit points
                                           ;;unsigned compare: left < lit(0x14=20), size=1
                                           ;	.line	13; "time_task.c"	if( time_50us_tick >= 20 ) // time_50us_tick
0001b2   0b14     movai   0x14             	MOVAI	0x14
0001b3   1239     rsubar  0x39             	RSUBAR	_time_50us_tick
0001b4   3003     jbset   0x3, 0           	JBSET	STATUS,0
0001b5   29d8     goto    0x1d8            	GOTO	_00114_DS_
                                           ;;genSkipc:3291: created from rifx:00285F1C
                                           ;	.line	15; "time_task.c"	time_50us_tick = time_50us_tick - 20 ; 
0001b6   1639     movar   0x39             	MOVAR	_time_50us_tick
0001b7   15be     movra   0x3e             	MOVRA	r0x1007
0001b8   0bec     movai   0xec             	MOVAI	0xec
0001b9   1f3e     addar   0x3e             	ADDAR	r0x1007
0001ba   15b9     movra   0x39             	MOVRA	_time_50us_tick
                                           ;	.line	16; "time_task.c"	time_1ms_tick++;
0001bb   19ba     incr    0x3a             	INCR	_time_1ms_tick
                                           ;	.line	17; "time_task.c"	Led_time_1ms_tick++;
0001bc   19bd     incr    0x3d             	INCR	_Led_time_1ms_tick
                                           ;	.line	18; "time_task.c"	if( flag1.back_F == 0 ) 
0001bd   3421     jbclr   0x21, 0          	JBCLR	_flag1,0
0001be   29c2     goto    0x1c2            	GOTO	_00106_DS_
                                           ;	.line	20; "time_task.c"	led_speed = 29;
0001bf   0b1d     movai   0x1d             	MOVAI	0x1d
0001c0   15b6     movra   0x36             	MOVRA	_led_speed
0001c1   29c4     goto    0x1c4            	GOTO	_00107_DS_
                                           _00106_DS_
                                           ;	.line	24; "time_task.c"	led_speed = 14;
0001c2   0b0e     movai   0xe              	MOVAI	0x0e
0001c3   15b6     movra   0x36             	MOVRA	_led_speed
                                           _00107_DS_
                                           ;	.line	27; "time_task.c"	GIE = 0; //disgint;
0001c4   3f8e     bclr    0xe, 0x7         	BCLR	_INTEbits,7
                                           ;	.line	28; "time_task.c"	RTC_mode_6_qicailiushui_012345_543210_time_deal();
0001c5   20ea     call    0xea             	CALL	_RTC_mode_6_qicailiushui_012345_543210_time_deal
                                           ;	.line	29; "time_task.c"	GIE = 1; //engint;
0001c6   3b8e     bset    0xe, 0x7         	BSET	_INTEbits,7
                                           ;;unsigned compare: left < lit(0xA=10), size=1
                                           ;	.line	30; "time_task.c"	if( time_1ms_tick >= 10 )
0001c7   0b0a     movai   0xa              	MOVAI	0x0a
0001c8   123a     rsubar  0x3a             	RSUBAR	_time_1ms_tick
0001c9   3003     jbset   0x3, 0           	JBSET	STATUS,0
0001ca   29d8     goto    0x1d8            	GOTO	_00114_DS_
                                           ;;genSkipc:3291: created from rifx:00285F1C
                                           ;	.line	32; "time_task.c"	time_1ms_tick = 0;
0001cb   1dba     clrr    0x3a             	CLRR	_time_1ms_tick
                                           ;	.line	33; "time_task.c"	time_10ms_tick++;
0001cc   19bb     incr    0x3b             	INCR	_time_10ms_tick
                                           ;	.line	34; "time_task.c"	Led_mode_deal();
0001cd   20ac     call    0xac             	CALL	_Led_mode_deal
                                           ;;unsigned compare: left < lit(0xA=10), size=1
                                           ;	.line	35; "time_task.c"	if( time_10ms_tick >= 10 )
0001ce   0b0a     movai   0xa              	MOVAI	0x0a
0001cf   123b     rsubar  0x3b             	RSUBAR	_time_10ms_tick
0001d0   3003     jbset   0x3, 0           	JBSET	STATUS,0
0001d1   29d8     goto    0x1d8            	GOTO	_00114_DS_
                                           ;;genSkipc:3291: created from rifx:00285F1C
                                           ;	.line	37; "time_task.c"	time_10ms_tick = time_10ms_tick - 10;
0001d2   163b     movar   0x3b             	MOVAR	_time_10ms_tick
0001d3   15be     movra   0x3e             	MOVRA	r0x1007
0001d4   0bf6     movai   0xf6             	MOVAI	0xf6
0001d5   1f3e     addar   0x3e             	ADDAR	r0x1007
0001d6   15bb     movra   0x3b             	MOVRA	_time_10ms_tick
                                           ;	.line	38; "time_task.c"	time_100ms_tick++;
0001d7   19bc     incr    0x3c             	INCR	_time_100ms_tick
                                           _00114_DS_
                                           ;	.line	43; "time_task.c"	}
0001d8   000c     return                   	RETURN	
                                           ; exit point of _time_50us_tick_function
                                           
                                           
                                           ;	code size estimation:
                                           ;	   39+    0 =    39 instructions (   78 byte)
                                           
                                           	end
                                           ;--------------------------------------------------------
                                           ; File Created by SN-SDCC : SinoMCU ANSI-C Compiler
                                           ; Version 2.0.0 (Dec 11 2019) (MINGW32)
                                           ; This file was generated Sat Mar 09 11:29:04 2024
                                           ;--------------------------------------------------------
                                           ; MC30 port for the RISC core
                                           ;--------------------------------------------------------
                                           ;	.file	"MC30P6280.c"
                                           	list	p=1K6280
                                           	radix dec
                                           	include "1K6280.inc"
                                           ;--------------------------------------------------------
                                           ; external declarations
                                           ;--------------------------------------------------------
                                           	extern	_time_50us_tick_function
                                           	extern	_time_deal
                                           	extern	_Led_mode_deal
                                           	extern	_send_three_byte
                                           	extern	_send_one_byte
                                           	extern	_send_000
                                           	extern	_send_all_byte
                                           	extern	_RTC_mode_6_qicailiushui_012345_543210_time_deal
                                           	extern	_RGB_color_deal
                                           	extern	_led_color_deal
                                           	extern	_INDFbits
                                           	extern	_T0CNTbits
                                           	extern	_PCLbits
                                           	extern	_STATUSbits
                                           	extern	_FSRbits
                                           	extern	_P1bits
                                           	extern	_MCRbits
                                           	extern	_P1KBCRbits
                                           	extern	_PCLATHbits
                                           	extern	_PDCONbits
                                           	extern	_ODCONbits
                                           	extern	_PUCONbits
                                           	extern	_INTEbits
                                           	extern	_INTFbits
                                           	extern	_T0CRbits
                                           	extern	_DDR1bits
                                           	extern	_TMRCRbits
                                           	extern	_T1CRbits
                                           	extern	_T1CNTbits
                                           	extern	_T1LOADbits
                                           	extern	_T1DATAbits
                                           	extern	_time_50us_tick
                                           	extern	_time_1ms_tick
                                           	extern	_time_10ms_tick
                                           	extern	_Led_time_1ms_tick
                                           	extern	_IR_LED_ON_F
                                           	extern	_short_mode_init_F
                                           	extern	_led_level_temp
                                           	extern	_led_num
                                           	extern	_send_count
                                           	extern	_Time_Count
                                           	extern	_flag1
                                           	extern	_LED_R_PWM_expect
                                           	extern	_LED_G_PWM_expect
                                           	extern	_LED_B_PWM_expect
                                           	extern	_led_level_1_16
                                           	extern	_RTC_mode
                                           	extern	_RTC_led_level
                                           	extern	_Color_mode
                                           	extern	_led_mode
                                           	extern	_led_level
                                           	extern	_led_speed
                                           	extern	_temp_byte_value
                                           	extern	_LED_duty
                                           	extern	_HC_R_LED_Color_LEVEL_TABLE
                                           	extern	_HC_G_LED_Color_LEVEL_TABLE
                                           	extern	_HC_B_LED_Color_LEVEL_TABLE
                                           	extern	_INDF
                                           	extern	_T0CNT
                                           	extern	_PCL
                                           	extern	_STATUS
                                           	extern	_FSR
                                           	extern	_P1
                                           	extern	_MCR
                                           	extern	_P1KBCR
                                           	extern	_PCLATH
                                           	extern	_PDCON
                                           	extern	_ODCON
                                           	extern	_PUCON
                                           	extern	_INTE
                                           	extern	_INTF
                                           	extern	_T0CR
                                           	extern	_DDR1
                                           	extern	_TMRCR
                                           	extern	_T1CR
                                           	extern	_T1CNT
                                           	extern	_T1LOAD
                                           	extern	_T1DATA
                                           ;--------------------------------------------------------
                                           ; global declarations
                                           ;--------------------------------------------------------
                                           	global	_main
                                           	global	_int_isr
                                           	global	_abuf
                                           	global	_statusbuf
                                           
                                           	global STK06
                                           	global STK05
                                           	global STK04
                                           	global STK03
                                           	global STK02
                                           	global STK01
                                           	global STK00
                                           
                                           sharebank udata_ovr 0x0010
                                           STK06	res 1
                                           STK05	res 1
                                           STK04	res 1
                                           STK03	res 1
                                           STK02	res 1
                                           STK01	res 1
                                           STK00	res 1
                                           
                                           ;--------------------------------------------------------
                                           ; global definitions
                                           ;--------------------------------------------------------
                                           UD_MC30P6280_0	udata
                                           _abuf	res	1
                                           
                                           UD_MC30P6280_1	udata
                                           _statusbuf	res	1
                                           
                                           ;--------------------------------------------------------
                                           ; absolute symbol definitions
                                           ;--------------------------------------------------------
                                           ;--------------------------------------------------------
                                           ; compiler-defined variables
                                           ;--------------------------------------------------------
                                           UDL_MC30P6280_0	udata
                                           r0x1005	res	1
                                           ;--------------------------------------------------------
                                           ; initialized data
                                           ;--------------------------------------------------------
                                           
                                           ;@Allocation info for local variables in function 'main'
                                           ;@main time_50us_tick_function   Allocated to registers ;size:2
                                           ;@main time_deal                 Allocated to registers ;size:2
                                           ;@main Led_mode_deal             Allocated to registers ;size:2
                                           ;@main send_three_byte           Allocated to registers ;size:2
                                           ;@main send_one_byte             Allocated to registers ;size:2
                                           ;@main send_000                  Allocated to registers ;size:2
                                           ;@main send_all_byte             Allocated to registers ;size:2
                                           ;@main RTC_mode_6_qicailiushui_012345_543210_time_deal Allocated to registers ;size:2
                                           ;@main RGB_color_deal            Allocated to registers ;size:2
                                           ;@main led_color_deal            Allocated to registers ;size:2
                                           ;@main main                      Allocated to registers ;size:2
                                           ;@main INDFbits                  Allocated to registers ;size:1
                                           ;@main T0CNTbits                 Allocated to registers ;size:1
                                           ;@main PCLbits                   Allocated to registers ;size:1
                                           ;@main STATUSbits                Allocated to registers ;size:1
                                           ;@main FSRbits                   Allocated to registers ;size:1
                                           ;@main P1bits                    Allocated to registers ;size:1
                                           ;@main MCRbits                   Allocated to registers ;size:1
                                           ;@main P1KBCRbits                Allocated to registers ;size:1
                                           ;@main PCLATHbits                Allocated to registers ;size:1
                                           ;@main PDCONbits                 Allocated to registers ;size:1
                                           ;@main ODCONbits                 Allocated to registers ;size:1
                                           ;@main PUCONbits                 Allocated to registers ;size:1
                                           ;@main INTEbits                  Allocated to registers ;size:1
                                           ;@main INTFbits                  Allocated to registers ;size:1
                                           ;@main T0CRbits                  Allocated to registers ;size:1
                                           ;@main DDR1bits                  Allocated to registers ;size:1
                                           ;@main TMRCRbits                 Allocated to registers ;size:1
                                           ;@main T1CRbits                  Allocated to registers ;size:1
                                           ;@main T1CNTbits                 Allocated to registers ;size:1
                                           ;@main T1LOADbits                Allocated to registers ;size:1
                                           ;@main T1DATAbits                Allocated to registers ;size:1
                                           ;@main time_50us_tick            Allocated to registers ;size:1
                                           ;@main time_1ms_tick             Allocated to registers ;size:1
                                           ;@main time_10ms_tick            Allocated to registers ;size:1
                                           ;@main Led_time_1ms_tick         Allocated to registers ;size:1
                                           ;@main IR_LED_ON_F               Allocated to registers ;size:1
                                           ;@main short_mode_init_F         Allocated to registers ;size:1
                                           ;@main led_level_temp            Allocated to registers ;size:1
                                           ;@main led_num                   Allocated to registers ;size:1
                                           ;@main send_count                Allocated to registers ;size:1
                                           ;@main Time_Count                Allocated to registers ;size:1
                                           ;@main flag1                     Allocated to registers ;size:1
                                           ;@main LED_R_PWM_expect          Allocated to registers ;size:1
                                           ;@main LED_G_PWM_expect          Allocated to registers ;size:1
                                           ;@main LED_B_PWM_expect          Allocated to registers ;size:1
                                           ;@main led_level_1_16            Allocated to registers ;size:1
                                           ;@main RTC_mode                  Allocated to registers ;size:1
                                           ;@main RTC_led_level             Allocated to registers ;size:1
                                           ;@main Color_mode                Allocated to registers ;size:1
                                           ;@main led_mode                  Allocated to registers ;size:1
                                           ;@main led_level                 Allocated to registers ;size:1
                                           ;@main led_speed                 Allocated to registers ;size:1
                                           ;@main temp_byte_value           Allocated to registers ;size:1
                                           ;@main LED_duty                  Allocated to registers ;size:1
                                           ;@main abuf                      Allocated to registers ;size:1
                                           ;@main statusbuf                 Allocated to registers ;size:1
                                           ;@main INDF                      Allocated to registers ;size:1
                                           ;@main T0CNT                     Allocated to registers ;size:1
                                           ;@main PCL                       Allocated to registers ;size:1
                                           ;@main STATUS                    Allocated to registers ;size:1
                                           ;@main FSR                       Allocated to registers ;size:1
                                           ;@main P1                        Allocated to registers ;size:1
                                           ;@main MCR                       Allocated to registers ;size:1
                                           ;@main P1KBCR                    Allocated to registers ;size:1
                                           ;@main PCLATH                    Allocated to registers ;size:1
                                           ;@main PDCON                     Allocated to registers ;size:1
                                           ;@main ODCON                     Allocated to registers ;size:1
                                           ;@main PUCON                     Allocated to registers ;size:1
                                           ;@main INTE                      Allocated to registers ;size:1
                                           ;@main INTF                      Allocated to registers ;size:1
                                           ;@main T0CR                      Allocated to registers ;size:1
                                           ;@main DDR1                      Allocated to registers ;size:1
                                           ;@main TMRCR                     Allocated to registers ;size:1
                                           ;@main T1CR                      Allocated to registers ;size:1
                                           ;@main T1CNT                     Allocated to registers ;size:1
                                           ;@main T1LOAD                    Allocated to registers ;size:1
                                           ;@main T1DATA                    Allocated to registers ;size:1
                                           ;@end Allocation info for local variables in function 'main';
                                           ;@Allocation info for local variables in function 'int_isr'
                                           ;@end Allocation info for local variables in function 'int_isr';
                                           
                                           ;--------------------------------------------------------
                                           ; overlayable items in internal ram 
                                           ;--------------------------------------------------------
                                           ;	udata_ovr
                                           ;--------------------------------------------------------
                                           ; reset vector 
                                           ;--------------------------------------------------------
                                           STARTUP	code 0x0000
                                           	goto	_main
                                           ;--------------------------------------------------------
                                           ; interrupt and initialization code
                                           ;--------------------------------------------------------
                                           c_interrupt	code	0x8
                                           __sdcc_interrupt
                                           ;***
                                           ;  pBlock Stats: dbName = I
                                           ;***
                                           ;entry:  _int_isr	;Function start
                                           ; 0 exit points
                                           ;1 compiler assigned register :
                                           ;   r0x1005
                                           ;; Starting pCode block
                                           _int_isr	;Function start
                                           ; 0 exit points
                                           ;	.line	67; "MC30P6280.c"	__endasm;
                                           	movra	_abuf
                                           	swapar	_STATUS
                                           	movra	_statusbuf
                                           ;	.line	69; "MC30P6280.c"	if ((T0IF) && (T0IE))
                                           	JBSET	_INTFbits,0
                                           	GOTO	_00112_DS_
                                           	JBSET	_INTEbits,0
                                           	GOTO	_00112_DS_
                                           ;	.line	71; "MC30P6280.c"	T0IF = 0;
                                           	BCLR	_INTFbits,0
                                           ;	.line	72; "MC30P6280.c"	T0CNT = 256 - 46;
                                           	MOVAI	0xd2
                                           	MOVRA	_T0CNT
                                           ;	.line	73; "MC30P6280.c"	time_50us_tick++;
                                           	INCR	_time_50us_tick
                                           ;	.line	74; "MC30P6280.c"	test = ~test;
                                           	CLRR	r0x1005
                                           	JBCLR	_P1bits,1
                                           	INCR	r0x1005
                                           	COMAR	r0x1005
                                           	MOVRA	r0x1005
                                           	RRAR	r0x1005
                                           	JBSET	STATUS,0
                                           	BCLR	_P1bits,1
                                           	JBCLR	STATUS,0
                                           	BSET	_P1bits,1
                                           _00112_DS_
                                           ;	.line	87; "MC30P6280.c"	__endasm;
                                           	swapar	_statusbuf
                                           	movra	_STATUS
                                           	swapr	_abuf
                                           	swapar	_abuf
                                           END_OF_INTERRUPT
                                           ;	.line	88; "MC30P6280.c"	}
                                           	RETIE	
                                           
                                           ;--------------------------------------------------------
                                           ; code
                                           ;--------------------------------------------------------
                                           code_MC30P6280	code
                                           ;***
                                           ;  pBlock Stats: dbName = M
                                           ;***
                                           ;entry:  _main	;Function start
                                           ; 2 exit points
                                           ;has an exit
                                           ;functions called:
                                           ;   _time_50us_tick_function
                                           ;   _time_50us_tick_function
                                           ;; Starting pCode block
                                           _main	;Function start
                                           ; 2 exit points
                                           ;	.line	19; "MC30P6280.c"	GIE = 0;
                                           	BCLR	_INTEbits,7
                                           ;	.line	31; "MC30P6280.c"	__endasm;
                                           	movai	0x3F
                                           	movra	FSR
                                           	movai	47
                                           	movra	0x3F
                                           	decr	FSR
                                           	clrr	INDF
                                           	djzr	0x3F
                                           	goto	$ -3;
                                           	clrr	0x3F
                                           	
                                           ;	.line	33; "MC30P6280.c"	P1 = 0x00; //1:input 0:output
                                           	CLRR	_P1
                                           ;	.line	34; "MC30P6280.c"	DDR1 = 0x00;   	//1:input 0:output
                                           	CLRR	_DDR1
                                           ;	.line	35; "MC30P6280.c"	PUCON = 0xff; //0:Effective 1:invalid
                                           	MOVAI	0xff
                                           	MOVRA	_PUCON
                                           ;	.line	36; "MC30P6280.c"	PDCON = 0xff; //0:Effective 1:invalid
                                           	MOVAI	0xff
                                           	MOVRA	_PDCON
                                           ;	.line	37; "MC30P6280.c"	ODCON = 0x00; //0:推挽输出  1:开漏输出
                                           	CLRR	_ODCON
                                           ;	.line	39; "MC30P6280.c"	T0CR = 0x01; //时钟为CPU时钟    定时器64分频  1ms
                                           	MOVAI	0x01
                                           	MOVRA	_T0CR
                                           ;	.line	40; "MC30P6280.c"	T0CNT = 256 - 46;
                                           	MOVAI	0xd2
                                           	MOVRA	_T0CNT
                                           ;	.line	41; "MC30P6280.c"	T0IE = 1;
                                           	BSET	_INTEbits,0
                                           ;	.line	43; "MC30P6280.c"	led_mode = Color_mode_Max + 6;
                                           	MOVAI	0x37
                                           	MOVRA	_led_mode
                                           ;	.line	44; "MC30P6280.c"	IR_LED_ON_F = 1;
                                           	MOVAI	0x01
                                           	MOVRA	_IR_LED_ON_F
                                           ;	.line	45; "MC30P6280.c"	led_level = LED_LEVEL_Max;
                                           	MOVAI	0xf0
                                           	MOVRA	_led_level
                                           ;	.line	46; "MC30P6280.c"	short_mode_init_F = 1;
                                           	MOVAI	0x01
                                           	MOVRA	_short_mode_init_F
                                           ;	.line	48; "MC30P6280.c"	GIE = 1;
                                           	BSET	_INTEbits,7
                                           _00106_DS_
                                           ;	.line	51; "MC30P6280.c"	time_50us_tick_function();
                                           	CALL	_time_50us_tick_function
                                           	GOTO	_00106_DS_
                                           ;	.line	53; "MC30P6280.c"	}
                                           	RETURN	
                                           ; exit point of _main
                                           
                                           
                                           ;	code size estimation:
                                           ;	   44+    0 =    44 instructions (   88 byte)
                                           
                                           	end


MEMORY USAGE MAP ('X' = Used,  '-' = Unused)

0000 : XX-------------- XXXXXXXXXXXXXXXX XXXXXXXXXXXXXXXX XXXXXXXXXXXXXXXX
0040 : XXXXXXXXXXXXXXXX XXXXXXXXXXXXXXXX XXXXXXXXXXXXXXXX XXXXXXXXXXXXXXXX
0080 : XXXXXXXXXXXXXXXX XXXXXXXXXXXXXXXX XXXXXXXXXXXXXXXX XXXXXXXXXXXXXXXX
00C0 : XXXXXXXXXXXXXXXX XXXXXXXXXXXXXXXX XXXXXXXXXXXXXXXX XXXXXXXXXXXXXXXX
0100 : XXXXXXXXXXXXXXXX XXXXXXXXXXXXXXXX XXXXXXXXXXXXXXXX XXXXXXXXXXXXXXXX
0140 : XXXXXXXXXXXXXXXX XXXXXXXXXXXXXXXX XXXXXXXXXXXXXXXX XXXXXXXXXXXXXXXX
0180 : XXXXXXXXXXXXXXXX XXXXXXXXXXXXXXXX XXXXXXXXXXXXXXXX XXXXXXXXXXXXXXXX
01C0 : XXXXXXXXXXXXXXXX XXXXXXXXXXXXXXXX XXXXXXXXXXXXXXXX XXXXXXXXXXXXXXXX
0200 : XXXXXXXXXXXXXXXX XXXXXXXXXXXXXXXX XXXXXXXXXXXXXXXX XXXXXXXXXXXXXXXX
0240 : XXXXXXXXXXXXXXXX XXXXXXXXXXXXXXXX XXXXXXXXXXXXXXXX XXXXXXXXXXXXXXXX
0280 : XXXXXXXXXXXXXXXX XXXXXXXXXXXXXXXX XXXXXXXXXXXXXXXX XXXXXXXXXXXXXXXX
02C0 : XXXXXXXXXXXXXXXX XXXXXXXXXXXXXXXX XXXXXXXXXXXXXXXX XXXXXXXXXXXXXXXX
0300 : XXXXXXXXXXXXXXXX XXXXXXXXXXXXXXXX XXXXXXXXXXXXXXXX XXXXXXXXXXXXXXXX
0340 : XXXXXXXXXXXXXXXX XXXXXXXXXXXXXXXX XXXXXXXXXXXXXXXX XXXXXXXXXXXXXXXX
0380 : XXXXXXXXXXXXXXXX XXXXXXXXXXXXXXXX XXXXXXXXXXXXXXXX XXXXXXXXXXXXXXXX
03C0 : XXXXXXXXXXXXXXXX XXXXXXXXXXXXXXXX XXXXXXXXXXXXXXXX XXXXXXXXXXXXXXXX
0400 : XXXXXXXXXXXXXXXX XX-------------- ---------------- ----------------

All other memory blocks unused.

Program Memory Words Used:   514

